ccopy_reg
_reconstructor
p0
(cNEAT
NEAT
p1
c__builtin__
object
p2
Ntp3
Rp4
(dp5
S'population_fitness'
p6
I0
sS'initial_topology'
p7
(I10
I1
tp8
sS'innovation'
p9
(iinnovation
Innovation
p10
(dp11
S'currentInnovation'
p12
I11
sbsS'species_number'
p13
I2
sS'species'
p14
(dp15
I0
g0
(cspecies
Species
p16
g2
Ntp17
Rp18
(dp19
S'times_stagnated'
p20
I0
sS'generation_with_max_fitness'
p21
I0
sS'genomes'
p22
(dp23
I0
g0
(cgenome
Genome
p24
g2
Ntp25
Rp26
(dp27
S'species_id'
p28
NsS'num_output_neurons'
p29
I1
sS'nodeList'
p30
(dp31
I0
g0
(cnodeGene
NodeGene
p32
g2
Ntp33
Rp34
(dp35
S'outputGenes'
p36
(dp37
I1
g0
(cconnectionGene
ConnectionGene
p38
g2
Ntp39
Rp40
(dp41
S'input_neuron'
p42
g34
sS'innovation_number'
p43
I1
sS'enabled'
p44
I01
sS'output_neuron'
p45
g0
(g32
g2
Ntp46
Rp47
(dp48
g36
(dp49
sS'sent_output'
p50
I00
sS'layer'
p51
I11
sS'nodeType'
p52
S'output'
p53
sS'recieved_inputs'
p54
I0
sS'inputValue'
p55
F0.0
sS'inputGenes'
p56
(dp57
I1
g40
sI2
g0
(g38
g2
Ntp58
Rp59
(dp60
g42
g0
(g32
g2
Ntp61
Rp62
(dp63
g36
(dp64
I2
g59
ssg50
I00
sg51
I0
sg52
S'input'
p65
sg54
I0
sg55
F0.0
sg56
(dp66
sS'id'
p67
I1
sbsg43
I2
sg44
I01
sg45
g47
sS'weight'
p68
F1.8494293272798106
sbsI3
g0
(g38
g2
Ntp69
Rp70
(dp71
g42
g0
(g32
g2
Ntp72
Rp73
(dp74
g36
(dp75
I3
g70
ssg50
I00
sg51
I0
sg52
g65
sg54
I0
sg55
F0.0
sg56
(dp76
sg67
I2
sbsg43
I3
sg44
I01
sg45
g47
sg68
F1.950558398802977
sbsI4
g0
(g38
g2
Ntp77
Rp78
(dp79
g42
g0
(g32
g2
Ntp80
Rp81
(dp82
g36
(dp83
I4
g78
ssg50
I00
sg51
I0
sg52
g65
sg54
I0
sg55
F0.0
sg56
(dp84
sg67
I3
sbsg43
I4
sg44
I01
sg45
g47
sg68
F0.26791676905608197
sbsI5
g0
(g38
g2
Ntp85
Rp86
(dp87
g42
g0
(g32
g2
Ntp88
Rp89
(dp90
g36
(dp91
I5
g86
ssg50
I00
sg51
I0
sg52
g65
sg54
I0
sg55
F0.0
sg56
(dp92
sg67
I4
sbsg43
I5
sg44
I01
sg45
g47
sg68
F0.12291502398602745
sbsI6
g0
(g38
g2
Ntp93
Rp94
(dp95
g42
g0
(g32
g2
Ntp96
Rp97
(dp98
g36
(dp99
I6
g94
ssg50
I00
sg51
I0
sg52
g65
sg54
I0
sg55
F0.0
sg56
(dp100
sg67
I5
sbsg43
I6
sg44
I01
sg45
g47
sg68
F-0.4808778648408789
sbsI7
g0
(g38
g2
Ntp101
Rp102
(dp103
g42
g0
(g32
g2
Ntp104
Rp105
(dp106
g36
(dp107
I7
g102
ssg50
I00
sg51
I0
sg52
g65
sg54
I0
sg55
F0.0
sg56
(dp108
sg67
I6
sbsg43
I7
sg44
I01
sg45
g47
sg68
F-1.4292085755600166
sbsI8
g0
(g38
g2
Ntp109
Rp110
(dp111
g42
g0
(g32
g2
Ntp112
Rp113
(dp114
g36
(dp115
I8
g110
ssg50
I00
sg51
I0
sg52
g65
sg54
I0
sg55
F0.0
sg56
(dp116
sg67
I7
sbsg43
I8
sg44
I01
sg45
g47
sg68
F1.8276044601323225
sbsI9
g0
(g38
g2
Ntp117
Rp118
(dp119
g42
g0
(g32
g2
Ntp120
Rp121
(dp122
g36
(dp123
I9
g118
ssg50
I00
sg51
I0
sg52
g65
sg54
I0
sg55
F0.0
sg56
(dp124
sg67
I8
sbsg43
I9
sg44
I01
sg45
g47
sg68
F-1.5867081175644149
sbsI10
g0
(g38
g2
Ntp125
Rp126
(dp127
g42
g0
(g32
g2
Ntp128
Rp129
(dp130
g36
(dp131
I10
g126
ssg50
I00
sg51
I0
sg52
g65
sg54
I0
sg55
F0.0
sg56
(dp132
sg67
I9
sbsg43
I10
sg44
I01
sg45
g47
sg68
F-1.7207573805546978
sbssg67
I10
sbsg68
F-1.0837233396337482
sbssg50
I00
sg51
I0
sg52
g65
sg54
I0
sg55
F0.0
sg56
(dp133
sg67
I0
sbsI1
g62
sI2
g73
sI3
g81
sI4
g89
sI5
g97
sI6
g105
sI7
g113
sI8
g121
sI9
g129
sI10
g47
ssS'output_neurons'
p134
(lp135
g47
asg9
(iinnovation
Innovation
p136
(dp137
g12
I11
sbsS'connectionList'
p138
(dp139
I1
g40
sI2
g59
sI3
g70
sI4
g78
sI5
g86
sI6
g94
sI7
g102
sI8
g110
sI9
g118
sI10
g126
ssS'generation_id'
p140
I7
sS'num_input_neurons'
p141
I10
sS'max_hidden_neurons'
p142
I50
sS'fitness'
p143
F302.0
sS'current_neuron_id'
p144
I11
sS'input_neurons'
p145
(lp146
g34
ag62
ag73
ag81
ag89
ag97
ag105
ag113
ag121
ag129
asS'hiddenneurons'
p147
(lp148
sbsI1
g0
(g24
g2
Ntp149
Rp150
(dp151
g28
Nsg29
I1
sg30
(dp152
I0
g0
(g32
g2
Ntp153
Rp154
(dp155
g36
(dp156
I1
g0
(g38
g2
Ntp157
Rp158
(dp159
g43
I1
sg45
g0
(g32
g2
Ntp160
Rp161
(dp162
g36
(dp163
sg50
I00
sg51
I11
sg52
g53
sg54
I0
sg55
F0.0
sg56
(dp164
I1
g158
sI2
g0
(g38
g2
Ntp165
Rp166
(dp167
g43
I2
sg45
g161
sg44
I01
sg42
g0
(g32
g2
Ntp168
Rp169
(dp170
g36
(dp171
I2
g166
ssg50
I00
sg51
I0
sg52
g65
sg54
I0
sg55
F0.0
sg56
(dp172
sg67
I1
sbsg68
F0.5958982125476968
sbsI3
g0
(g38
g2
Ntp173
Rp174
(dp175
g43
I3
sg45
g161
sg44
I01
sg42
g0
(g32
g2
Ntp176
Rp177
(dp178
g36
(dp179
I3
g174
ssg50
I00
sg51
I0
sg52
g65
sg54
I0
sg55
F0.0
sg56
(dp180
sg67
I2
sbsg68
F1.921136866533035
sbsI4
g0
(g38
g2
Ntp181
Rp182
(dp183
g43
I4
sg45
g161
sg44
I01
sg42
g0
(g32
g2
Ntp184
Rp185
(dp186
g36
(dp187
I4
g182
ssg50
I00
sg51
I0
sg52
g65
sg54
I0
sg55
F0.0
sg56
(dp188
sg67
I3
sbsg68
F1.372841193275115
sbsI5
g0
(g38
g2
Ntp189
Rp190
(dp191
g43
I5
sg45
g161
sg44
I01
sg42
g0
(g32
g2
Ntp192
Rp193
(dp194
g36
(dp195
I5
g190
ssg50
I00
sg51
I0
sg52
g65
sg54
I0
sg55
F0.0
sg56
(dp196
sg67
I4
sbsg68
F-0.14848100817580834
sbsI6
g0
(g38
g2
Ntp197
Rp198
(dp199
g42
g0
(g32
g2
Ntp200
Rp201
(dp202
g36
(dp203
I6
g198
ssg50
I00
sg51
I0
sg52
g65
sg54
I0
sg55
F0.0
sg56
(dp204
sg67
I5
sbsg43
I6
sg44
I01
sg45
g161
sg68
F-0.38199493243231064
sbsI7
g0
(g38
g2
Ntp205
Rp206
(dp207
g43
I7
sg45
g161
sg44
I01
sg42
g0
(g32
g2
Ntp208
Rp209
(dp210
g36
(dp211
I7
g206
ssg50
I00
sg51
I0
sg52
g65
sg54
I0
sg55
F0.0
sg56
(dp212
sg67
I6
sbsg68
F-1.4108357844048705
sbsI8
g0
(g38
g2
Ntp213
Rp214
(dp215
g43
I8
sg45
g161
sg44
I01
sg42
g0
(g32
g2
Ntp216
Rp217
(dp218
g36
(dp219
I8
g214
ssg50
I00
sg51
I0
sg52
g65
sg54
I0
sg55
F0.0
sg56
(dp220
sg67
I7
sbsg68
F1.6331386056663966
sbsI9
g0
(g38
g2
Ntp221
Rp222
(dp223
g43
I9
sg45
g161
sg44
I01
sg42
g0
(g32
g2
Ntp224
Rp225
(dp226
g36
(dp227
I9
g222
ssg50
I00
sg51
I0
sg52
g65
sg54
I0
sg55
F0.0
sg56
(dp228
sg67
I8
sbsg68
F0.37073649222636174
sbsI10
g0
(g38
g2
Ntp229
Rp230
(dp231
g43
I10
sg45
g161
sg44
I01
sg42
g0
(g32
g2
Ntp232
Rp233
(dp234
g36
(dp235
I10
g230
ssg50
I00
sg51
I0
sg52
g65
sg54
I0
sg55
F0.0
sg56
(dp236
sg67
I9
sbsg68
F1.4537256720883645
sbsI12
g0
(g38
g2
Ntp237
Rp238
(dp239
g43
I12
sg45
g161
sg44
I01
sg42
g0
(g32
g2
Ntp240
Rp241
(dp242
g36
(dp243
I12
g238
ssg50
I00
sg51
I2
sg52
S'hidden'
p244
sg54
I0
sg55
F0.0
sg56
(dp245
I11
g0
(g38
g2
Ntp246
Rp247
(dp248
g43
I11
sg45
g241
sg44
I01
sg42
g154
sg68
F0.16683537202238002
sbssg67
I11
sbsg68
F-0.8718380336955397
sbssg67
I10
sbsg44
I00
sg42
g154
sg68
F0.5108402188041864
sbsI11
g247
ssg50
I00
sg51
I0
sg52
g65
sg54
I0
sg55
F0.0
sg56
(dp249
sg67
I0
sbsI1
g169
sI2
g177
sI3
g185
sI4
g193
sI5
g201
sI6
g209
sI7
g217
sI8
g225
sI9
g233
sI10
g161
sI11
g241
ssg134
(lp250
g161
asg9
(iinnovation
Innovation
p251
(dp252
g12
I13
sbsg138
(dp253
I1
g0
(g38
g2
Ntp254
Rp255
(dp256
g43
I1
sg45
g161
sg44
I00
sg42
g154
sg68
F0.45258929904951317
sbsI2
g0
(g38
g2
Ntp257
Rp258
(dp259
g43
I2
sg45
g161
sg44
I01
sg42
g169
sg68
F1.6028061963953169
sbsI3
g0
(g38
g2
Ntp260
Rp261
(dp262
g43
I3
sg45
g161
sg44
I01
sg42
g177
sg68
F1.921136866533035
sbsI4
g0
(g38
g2
Ntp263
Rp264
(dp265
g43
I4
sg45
g161
sg44
I01
sg42
g185
sg68
F1.2734332084687505
sbsI5
g0
(g38
g2
Ntp266
Rp267
(dp268
g43
I5
sg45
g161
sg44
I01
sg42
g193
sg68
F-0.11786231892436405
sbsI6
g0
(g38
g2
Ntp269
Rp270
(dp271
g43
I6
sg45
g161
sg44
I01
sg42
g201
sg68
F0.13040460566607592
sbsI7
g0
(g38
g2
Ntp272
Rp273
(dp274
g43
I7
sg45
g161
sg44
I01
sg42
g209
sg68
F-1.4108357844048705
sbsI8
g214
sI9
g0
(g38
g2
Ntp275
Rp276
(dp277
g43
I9
sg45
g161
sg44
I01
sg42
g225
sg68
F0.413788779601988
sbsI10
g0
(g38
g2
Ntp278
Rp279
(dp280
g43
I10
sg45
g161
sg44
I01
sg42
g233
sg68
F1.396267331404572
sbsI11
g0
(g38
g2
Ntp281
Rp282
(dp283
g43
I11
sg45
g241
sg44
I01
sg42
g154
sg68
F0.19127014874269116
sbsI12
g0
(g38
g2
Ntp284
Rp285
(dp286
g43
I12
sg45
g161
sg44
I01
sg42
g241
sg68
F-0.8718380336955397
sbssg140
I7
sg141
I10
sg142
I50
sg143
F270.0
sg144
I12
sg145
(lp287
g154
ag169
ag177
ag185
ag193
ag201
ag209
ag217
ag225
ag233
asg147
(lp288
g241
asbsI2
g0
(g24
g2
Ntp289
Rp290
(dp291
g28
Nsg29
I1
sg30
(dp292
I0
g0
(g32
g2
Ntp293
Rp294
(dp295
g36
(dp296
I1
g0
(g38
g2
Ntp297
Rp298
(dp299
g43
I1
sg45
g0
(g32
g2
Ntp300
Rp301
(dp302
g36
(dp303
sg50
I00
sg51
I11
sg52
g53
sg54
I0
sg55
F0.0
sg56
(dp304
I1
g298
sI2
g0
(g38
g2
Ntp305
Rp306
(dp307
g43
I2
sg45
g301
sg44
I01
sg42
g0
(g32
g2
Ntp308
Rp309
(dp310
g36
(dp311
I2
g306
ssg50
I00
sg51
I0
sg52
g65
sg54
I0
sg55
F0.0
sg56
(dp312
sg67
I1
sbsg68
F-1.6409509038263985
sbsI3
g0
(g38
g2
Ntp313
Rp314
(dp315
g43
I3
sg45
g301
sg44
I01
sg42
g0
(g32
g2
Ntp316
Rp317
(dp318
g36
(dp319
I3
g314
ssg50
I00
sg51
I0
sg52
g65
sg54
I0
sg55
F0.0
sg56
(dp320
sg67
I2
sbsg68
F-1.8581644755742646
sbsI4
g0
(g38
g2
Ntp321
Rp322
(dp323
g43
I4
sg45
g301
sg44
I01
sg42
g0
(g32
g2
Ntp324
Rp325
(dp326
g36
(dp327
I4
g322
ssg50
I00
sg51
I0
sg52
g65
sg54
I0
sg55
F0.0
sg56
(dp328
sg67
I3
sbsg68
F-0.9704038400811351
sbsI5
g0
(g38
g2
Ntp329
Rp330
(dp331
g43
I5
sg45
g301
sg44
I01
sg42
g0
(g32
g2
Ntp332
Rp333
(dp334
g36
(dp335
I5
g330
ssg50
I00
sg51
I0
sg52
g65
sg54
I0
sg55
F0.0
sg56
(dp336
sg67
I4
sbsg68
F0.8067346214354614
sbsI6
g0
(g38
g2
Ntp337
Rp338
(dp339
g43
I6
sg45
g301
sg44
I00
sg42
g0
(g32
g2
Ntp340
Rp341
(dp342
g36
(dp343
I11
g0
(g38
g2
Ntp344
Rp345
(dp346
g43
I11
sg45
g0
(g32
g2
Ntp347
Rp348
(dp349
g36
(dp350
I12
g0
(g38
g2
Ntp351
Rp352
(dp353
g43
I12
sg45
g301
sg44
I01
sg42
g348
sg68
F-0.530461553797997
sbssg50
I00
sg51
I7
sg52
S'hidden'
p354
sg54
I0
sg55
F0.0
sg56
(dp355
I11
g345
ssg67
I11
sbsg44
I01
sg42
g341
sg68
F0.8778534896327685
sbsI6
g338
ssg50
I00
sg51
I0
sg52
g65
sg54
I0
sg55
F0.0
sg56
(dp356
sg67
I5
sbsg68
F1.3002851200109826
sbsI7
g0
(g38
g2
Ntp357
Rp358
(dp359
g43
I7
sg45
g301
sg44
I01
sg42
g0
(g32
g2
Ntp360
Rp361
(dp362
g36
(dp363
I7
g358
ssg50
I00
sg51
I0
sg52
g65
sg54
I0
sg55
F0.0
sg56
(dp364
sg67
I6
sbsg68
F0.4412264711869242
sbsI8
g0
(g38
g2
Ntp365
Rp366
(dp367
g43
I8
sg45
g301
sg44
I01
sg42
g0
(g32
g2
Ntp368
Rp369
(dp370
g36
(dp371
I8
g366
ssg50
I00
sg51
I0
sg52
g65
sg54
I0
sg55
F0.0
sg56
(dp372
sg67
I7
sbsg68
F-0.9467917437811812
sbsI9
g0
(g38
g2
Ntp373
Rp374
(dp375
g43
I9
sg45
g301
sg44
I01
sg42
g0
(g32
g2
Ntp376
Rp377
(dp378
g36
(dp379
I9
g374
ssg50
I00
sg51
I0
sg52
g65
sg54
I0
sg55
F0.0
sg56
(dp380
sg67
I8
sbsg68
F-1.7322915426594365
sbsI10
g0
(g38
g2
Ntp381
Rp382
(dp383
g43
I10
sg45
g301
sg44
I01
sg42
g0
(g32
g2
Ntp384
Rp385
(dp386
g36
(dp387
I10
g382
ssg50
I00
sg51
I0
sg52
g65
sg54
I0
sg55
F0.0
sg56
(dp388
sg67
I9
sbsg68
F-1.1988246630575299
sbsI12
g352
ssg67
I10
sbsg44
I01
sg42
g294
sg68
F0.8943999317794524
sbssg50
I00
sg51
I0
sg52
g65
sg54
I0
sg55
F0.0
sg56
(dp389
sg67
I0
sbsI1
g309
sI2
g317
sI3
g325
sI4
g333
sI5
g341
sI6
g361
sI7
g369
sI8
g377
sI9
g385
sI10
g301
sI11
g348
ssg134
(lp390
g301
asg9
(iinnovation
Innovation
p391
(dp392
g12
I13
sbsg138
(dp393
I1
g0
(g38
g2
Ntp394
Rp395
(dp396
g43
I1
sg45
g301
sg44
I01
sg42
g294
sg68
F-1.179012821387703
sbsI2
g0
(g38
g2
Ntp397
Rp398
(dp399
g43
I2
sg45
g301
sg44
I01
sg42
g309
sg68
F-1.7251275013621583
sbsI3
g0
(g38
g2
Ntp400
Rp401
(dp402
g43
I3
sg45
g301
sg44
I01
sg42
g317
sg68
F-1.8280396869998596
sbsI4
g0
(g38
g2
Ntp403
Rp404
(dp405
g43
I4
sg45
g301
sg44
I01
sg42
g325
sg68
F-0.9721627028599803
sbsI5
g0
(g38
g2
Ntp406
Rp407
(dp408
g43
I5
sg45
g301
sg44
I01
sg42
g333
sg68
F0.8213891167701596
sbsI6
g0
(g38
g2
Ntp409
Rp410
(dp411
g43
I6
sg45
g301
sg44
I00
sg42
g341
sg68
F1.3002851200109826
sbsI7
g0
(g38
g2
Ntp412
Rp413
(dp414
g43
I7
sg45
g301
sg44
I01
sg42
g361
sg68
F0.4399788766852986
sbsI8
g0
(g38
g2
Ntp415
Rp416
(dp417
g43
I8
sg45
g301
sg44
I01
sg42
g369
sg68
F0.2212064933715081
sbsI9
g0
(g38
g2
Ntp418
Rp419
(dp420
g43
I9
sg45
g301
sg44
I01
sg42
g377
sg68
F-1.6754356163673265
sbsI10
g0
(g38
g2
Ntp421
Rp422
(dp423
g43
I10
sg45
g301
sg44
I01
sg42
g385
sg68
F-1.1988246630575299
sbsI11
g0
(g38
g2
Ntp424
Rp425
(dp426
g43
I11
sg45
g348
sg44
I01
sg42
g341
sg68
F0.8296940295432713
sbsI12
g0
(g38
g2
Ntp427
Rp428
(dp429
g43
I12
sg45
g301
sg44
I01
sg42
g348
sg68
F-0.5775420445559871
sbssg140
I7
sg141
I10
sg142
I50
sg143
F-315.0
sg144
I12
sg145
(lp430
g294
ag309
ag317
ag325
ag333
ag341
ag361
ag369
ag377
ag385
asg147
(lp431
g348
asbsI3
g0
(g24
g2
Ntp432
Rp433
(dp434
g28
Nsg29
I1
sg30
(dp435
I0
g0
(g32
g2
Ntp436
Rp437
(dp438
g36
(dp439
I1
g0
(g38
g2
Ntp440
Rp441
(dp442
g42
g437
sg43
I1
sg44
I01
sg45
g0
(g32
g2
Ntp443
Rp444
(dp445
g36
(dp446
sg50
I00
sg51
I11
sg52
g53
sg54
I0
sg55
F0.0
sg56
(dp447
I1
g441
sI2
g0
(g38
g2
Ntp448
Rp449
(dp450
g42
g0
(g32
g2
Ntp451
Rp452
(dp453
g36
(dp454
I2
g449
ssg50
I00
sg51
I0
sg52
g65
sg54
I0
sg55
F0.0
sg56
(dp455
sg67
I1
sbsg43
I2
sg44
I01
sg45
g444
sg68
F0.7286726473690797
sbsI3
g0
(g38
g2
Ntp456
Rp457
(dp458
g43
I3
sg45
g444
sg44
I01
sg42
g0
(g32
g2
Ntp459
Rp460
(dp461
g36
(dp462
I3
g457
ssg50
I00
sg51
I0
sg52
g65
sg54
I0
sg55
F0.0
sg56
(dp463
sg67
I2
sbsg68
F-1.649687075772506
sbsI4
g0
(g38
g2
Ntp464
Rp465
(dp466
g43
I4
sg45
g444
sg44
I01
sg42
g0
(g32
g2
Ntp467
Rp468
(dp469
g36
(dp470
I4
g465
ssg50
I00
sg51
I0
sg52
g65
sg54
I0
sg55
F0.0
sg56
(dp471
sg67
I3
sbsg68
F0.004255218135616606
sbsI5
g0
(g38
g2
Ntp472
Rp473
(dp474
g43
I5
sg45
g444
sg44
I01
sg42
g0
(g32
g2
Ntp475
Rp476
(dp477
g36
(dp478
I5
g473
ssg50
I00
sg51
I0
sg52
g65
sg54
I0
sg55
F0.0
sg56
(dp479
sg67
I4
sbsg68
F0.07047827580114172
sbsI6
g0
(g38
g2
Ntp480
Rp481
(dp482
g43
I6
sg45
g444
sg44
I01
sg42
g0
(g32
g2
Ntp483
Rp484
(dp485
g36
(dp486
I6
g481
ssg50
I00
sg51
I0
sg52
g65
sg54
I0
sg55
F0.0
sg56
(dp487
sg67
I5
sbsg68
F1.1314376559729658
sbsI7
g0
(g38
g2
Ntp488
Rp489
(dp490
g42
g0
(g32
g2
Ntp491
Rp492
(dp493
g36
(dp494
I7
g489
ssg50
I00
sg51
I0
sg52
g65
sg54
I0
sg55
F0.0
sg56
(dp495
sg67
I6
sbsg43
I7
sg44
I01
sg45
g444
sg68
F-1.2987697600051689
sbsI8
g0
(g38
g2
Ntp496
Rp497
(dp498
g43
I8
sg45
g444
sg44
I01
sg42
g0
(g32
g2
Ntp499
Rp500
(dp501
g36
(dp502
I8
g497
ssg50
I00
sg51
I0
sg52
g65
sg54
I0
sg55
F0.0
sg56
(dp503
sg67
I7
sbsg68
F1.3396578229195493
sbsI9
g0
(g38
g2
Ntp504
Rp505
(dp506
g43
I9
sg45
g444
sg44
I01
sg42
g0
(g32
g2
Ntp507
Rp508
(dp509
g36
(dp510
I9
g505
ssg50
I00
sg51
I0
sg52
g65
sg54
I0
sg55
F0.0
sg56
(dp511
sg67
I8
sbsg68
F1.8794190447892665
sbsI10
g0
(g38
g2
Ntp512
Rp513
(dp514
g42
g0
(g32
g2
Ntp515
Rp516
(dp517
g36
(dp518
I10
g513
ssg50
I00
sg51
I0
sg52
g65
sg54
I0
sg55
F0.0
sg56
(dp519
sg67
I9
sbsg43
I10
sg44
I01
sg45
g444
sg68
F0.3094261781802419
sbssg67
I10
sbsg68
F0.7446534047461884
sbssg50
I00
sg51
I0
sg52
g65
sg54
I0
sg55
F0.0
sg56
(dp520
sg67
I0
sbsI1
g452
sI2
g460
sI3
g468
sI4
g476
sI5
g484
sI6
g492
sI7
g500
sI8
g508
sI9
g516
sI10
g444
ssg134
(lp521
g444
asg9
(iinnovation
Innovation
p522
(dp523
g12
I11
sbsg138
(dp524
I1
g441
sI2
g449
sI3
g0
(g38
g2
Ntp525
Rp526
(dp527
g42
g460
sg43
I3
sg44
I01
sg45
g444
sg68
F-1.571110680068601
sbsI4
g0
(g38
g2
Ntp528
Rp529
(dp530
g42
g468
sg43
I4
sg44
I01
sg45
g444
sg68
F-0.036272085512855504
sbsI5
g0
(g38
g2
Ntp531
Rp532
(dp533
g42
g476
sg43
I5
sg44
I01
sg45
g444
sg68
F0.031852110582376414
sbsI6
g0
(g38
g2
Ntp534
Rp535
(dp536
g42
g484
sg43
I6
sg44
I01
sg45
g444
sg68
F1.174809688521657
sbsI7
g489
sI8
g0
(g38
g2
Ntp537
Rp538
(dp539
g42
g500
sg43
I8
sg44
I01
sg45
g444
sg68
F1.4703914203901252
sbsI9
g0
(g38
g2
Ntp540
Rp541
(dp542
g42
g508
sg43
I9
sg44
I01
sg45
g444
sg68
F1.8804063730460954
sbsI10
g513
ssg140
I7
sg141
I10
sg142
I50
sg143
F-757.0
sg144
I11
sg145
(lp543
g437
ag452
ag460
ag468
ag476
ag484
ag492
ag500
ag508
ag516
asg147
(lp544
sbsI4
g150
sI5
g0
(g24
g2
Ntp545
Rp546
(dp547
g28
Nsg29
I1
sg30
(dp548
I0
g0
(g32
g2
Ntp549
Rp550
(dp551
g36
(dp552
I1
g0
(g38
g2
Ntp553
Rp554
(dp555
g42
g550
sg68
F0.7446534047461884
sg44
I01
sg45
g0
(g32
g2
Ntp556
Rp557
(dp558
g36
(dp559
sg50
I00
sg51
I11
sg52
g53
sg54
I0
sg55
F0.0
sg56
(dp560
I1
g554
sI2
g0
(g38
g2
Ntp561
Rp562
(dp563
g42
g0
(g32
g2
Ntp564
Rp565
(dp566
g36
(dp567
I2
g562
ssg50
I00
sg51
I0
sg52
g65
sg54
I0
sg55
F0.0
sg56
(dp568
sg67
I1
sbsg68
F0.7286726473690797
sg44
I01
sg45
g557
sg43
I2
sbsI3
g0
(g38
g2
Ntp569
Rp570
(dp571
g42
g0
(g32
g2
Ntp572
Rp573
(dp574
g36
(dp575
I3
g570
ssg50
I00
sg51
I0
sg52
g65
sg54
I0
sg55
F0.0
sg56
(dp576
sg67
I2
sbsg43
I3
sg44
I01
sg45
g557
sg68
F-1.649687075772506
sbsI4
g0
(g38
g2
Ntp577
Rp578
(dp579
g42
g0
(g32
g2
Ntp580
Rp581
(dp582
g36
(dp583
I4
g578
ssg50
I00
sg51
I0
sg52
g65
sg54
I0
sg55
F0.0
sg56
(dp584
sg67
I3
sbsg43
I4
sg44
I01
sg45
g557
sg68
F0.004255218135616606
sbsI5
g0
(g38
g2
Ntp585
Rp586
(dp587
g42
g0
(g32
g2
Ntp588
Rp589
(dp590
g36
(dp591
I5
g586
ssg50
I00
sg51
I0
sg52
g65
sg54
I0
sg55
F0.0
sg56
(dp592
sg67
I4
sbsg43
I5
sg44
I01
sg45
g557
sg68
F0.07047827580114172
sbsI6
g0
(g38
g2
Ntp593
Rp594
(dp595
g42
g0
(g32
g2
Ntp596
Rp597
(dp598
g36
(dp599
I6
g594
ssg50
I00
sg51
I0
sg52
g65
sg54
I0
sg55
F0.0
sg56
(dp600
sg67
I5
sbsg43
I6
sg44
I01
sg45
g557
sg68
F1.1314376559729658
sbsI7
g0
(g38
g2
Ntp601
Rp602
(dp603
g42
g0
(g32
g2
Ntp604
Rp605
(dp606
g36
(dp607
I7
g602
ssg50
I00
sg51
I0
sg52
g65
sg54
I0
sg55
F0.0
sg56
(dp608
sg67
I6
sbsg68
F-1.2987697600051689
sg44
I01
sg45
g557
sg43
I7
sbsI8
g0
(g38
g2
Ntp609
Rp610
(dp611
g42
g0
(g32
g2
Ntp612
Rp613
(dp614
g36
(dp615
I8
g610
ssg50
I00
sg51
I0
sg52
g65
sg54
I0
sg55
F0.0
sg56
(dp616
sg67
I7
sbsg43
I8
sg44
I01
sg45
g557
sg68
F1.3396578229195493
sbsI9
g0
(g38
g2
Ntp617
Rp618
(dp619
g42
g0
(g32
g2
Ntp620
Rp621
(dp622
g36
(dp623
I9
g618
ssg50
I00
sg51
I0
sg52
g65
sg54
I0
sg55
F0.0
sg56
(dp624
sg67
I8
sbsg43
I9
sg44
I01
sg45
g557
sg68
F1.8794190447892665
sbsI10
g0
(g38
g2
Ntp625
Rp626
(dp627
g42
g0
(g32
g2
Ntp628
Rp629
(dp630
g36
(dp631
I10
g626
ssg50
I00
sg51
I0
sg52
g65
sg54
I0
sg55
F0.0
sg56
(dp632
sg67
I9
sbsg68
F0.3094261781802419
sg44
I01
sg45
g557
sg43
I10
sbssg67
I10
sbsg43
I1
sbssg50
I00
sg51
I0
sg52
g65
sg54
I0
sg55
F0.0
sg56
(dp633
sg67
I0
sbsI1
g565
sI2
g573
sI3
g581
sI4
g589
sI5
g597
sI6
g605
sI7
g613
sI8
g621
sI9
g629
sI10
g557
ssg134
(lp634
g557
asg9
(iinnovation
Innovation
p635
(dp636
g12
I11
sbsg138
(dp637
I1
g554
sI2
g562
sI3
g0
(g38
g2
Ntp638
Rp639
(dp640
g42
g573
sg68
F-1.571110680068601
sg44
I01
sg45
g557
sg43
I3
sbsI4
g0
(g38
g2
Ntp641
Rp642
(dp643
g42
g581
sg68
F-0.036272085512855504
sg44
I01
sg45
g557
sg43
I4
sbsI5
g0
(g38
g2
Ntp644
Rp645
(dp646
g42
g589
sg68
F0.031852110582376414
sg44
I01
sg45
g557
sg43
I5
sbsI6
g0
(g38
g2
Ntp647
Rp648
(dp649
g42
g597
sg68
F1.174809688521657
sg44
I01
sg45
g557
sg43
I6
sbsI7
g602
sI8
g0
(g38
g2
Ntp650
Rp651
(dp652
g42
g613
sg68
F1.4703914203901252
sg44
I01
sg45
g557
sg43
I8
sbsI9
g0
(g38
g2
Ntp653
Rp654
(dp655
g42
g621
sg68
F1.8804063730460954
sg44
I01
sg45
g557
sg43
I9
sbsI10
g626
ssg140
I7
sg141
I10
sg142
I50
sg143
F-757.0
sg144
I11
sg145
(lp656
g550
ag565
ag573
ag581
ag589
ag597
ag605
ag613
ag621
ag629
asg147
(lp657
sbsI6
g433
sI7
g0
(g24
g2
Ntp658
Rp659
(dp660
g28
Nsg29
I1
sg30
(dp661
I0
g0
(g32
g2
Ntp662
Rp663
(dp664
g36
(dp665
I1
g0
(g38
g2
Ntp666
Rp667
(dp668
g43
I1
sg45
g0
(g32
g2
Ntp669
Rp670
(dp671
g36
(dp672
sg50
I00
sg51
I11
sg52
g53
sg54
I0
sg55
F0.0
sg56
(dp673
I1
g667
sI2
g0
(g38
g2
Ntp674
Rp675
(dp676
g43
I2
sg45
g670
sg44
I01
sg42
g0
(g32
g2
Ntp677
Rp678
(dp679
g36
(dp680
I2
g675
ssg50
I00
sg51
I0
sg52
g65
sg54
I0
sg55
F0.0
sg56
(dp681
sg67
I1
sbsg68
F1.8721421455170295
sbsI3
g0
(g38
g2
Ntp682
Rp683
(dp684
g43
I3
sg45
g670
sg44
I01
sg42
g0
(g32
g2
Ntp685
Rp686
(dp687
g36
(dp688
I3
g683
ssg50
I00
sg51
I0
sg52
g65
sg54
I0
sg55
F0.0
sg56
(dp689
sg67
I2
sbsg68
F1.841770941569965
sbsI4
g0
(g38
g2
Ntp690
Rp691
(dp692
g43
I4
sg45
g670
sg44
I01
sg42
g0
(g32
g2
Ntp693
Rp694
(dp695
g36
(dp696
I4
g691
ssg50
I00
sg51
I0
sg52
g65
sg54
I0
sg55
F0.0
sg56
(dp697
sg67
I3
sbsg68
F1.120414234400293
sbsI5
g0
(g38
g2
Ntp698
Rp699
(dp700
g43
I5
sg45
g670
sg44
I01
sg42
g0
(g32
g2
Ntp701
Rp702
(dp703
g36
(dp704
I5
g699
ssg50
I00
sg51
I0
sg52
g65
sg54
I0
sg55
F0.0
sg56
(dp705
sg67
I4
sbsg68
F0.06503554103796438
sbsI6
g0
(g38
g2
Ntp706
Rp707
(dp708
g43
I6
sg45
g670
sg44
I01
sg42
g0
(g32
g2
Ntp709
Rp710
(dp711
g36
(dp712
I6
g707
ssg50
I00
sg51
I0
sg52
g65
sg54
I0
sg55
F0.0
sg56
(dp713
sg67
I5
sbsg68
F-0.6952417003386737
sbsI7
g0
(g38
g2
Ntp714
Rp715
(dp716
g43
I7
sg45
g670
sg44
I01
sg42
g0
(g32
g2
Ntp717
Rp718
(dp719
g36
(dp720
I7
g715
ssg50
I00
sg51
I0
sg52
g65
sg54
I0
sg55
F0.0
sg56
(dp721
sg67
I6
sbsg68
F1.871987674623222
sbsI8
g0
(g38
g2
Ntp722
Rp723
(dp724
g43
I8
sg45
g670
sg44
I01
sg42
g0
(g32
g2
Ntp725
Rp726
(dp727
g36
(dp728
I8
g723
ssg50
I00
sg51
I0
sg52
g65
sg54
I0
sg55
F0.0
sg56
(dp729
sg67
I7
sbsg68
F1.9062978599515454
sbsI9
g0
(g38
g2
Ntp730
Rp731
(dp732
g43
I9
sg45
g670
sg44
I01
sg42
g0
(g32
g2
Ntp733
Rp734
(dp735
g36
(dp736
I9
g731
ssg50
I00
sg51
I0
sg52
g65
sg54
I0
sg55
F0.0
sg56
(dp737
sg67
I8
sbsg68
F-1.573545714880209
sbsI10
g0
(g38
g2
Ntp738
Rp739
(dp740
g43
I10
sg45
g670
sg44
I01
sg42
g0
(g32
g2
Ntp741
Rp742
(dp743
g36
(dp744
I10
g739
ssg50
I00
sg51
I0
sg52
g65
sg54
I0
sg55
F0.0
sg56
(dp745
sg67
I9
sbsg68
F-1.694866121426098
sbssg67
I10
sbsg44
I01
sg42
g663
sg68
F-1.0174493276831913
sbssg50
I00
sg51
I0
sg52
g65
sg54
I0
sg55
F0.0
sg56
(dp746
sg67
I0
sbsI1
g678
sI2
g686
sI3
g694
sI4
g702
sI5
g710
sI6
g718
sI7
g726
sI8
g734
sI9
g742
sI10
g670
ssg134
(lp747
g670
asg9
(iinnovation
Innovation
p748
(dp749
g12
I11
sbsg138
(dp750
I1
g0
(g38
g2
Ntp751
Rp752
(dp753
g43
I1
sg45
g670
sg44
I01
sg42
g663
sg68
F-1.1565968838012888
sbsI2
g0
(g38
g2
Ntp754
Rp755
(dp756
g43
I2
sg45
g670
sg44
I01
sg42
g678
sg68
F0.7482618829713839
sbsI3
g683
sI4
g691
sI5
g699
sI6
g707
sI7
g0
(g38
g2
Ntp757
Rp758
(dp759
g43
I7
sg45
g670
sg44
I01
sg42
g718
sg68
F-1.2844065913656786
sbsI8
g0
(g38
g2
Ntp760
Rp761
(dp762
g43
I8
sg45
g670
sg44
I01
sg42
g726
sg68
F1.9526801552657678
sbsI9
g0
(g38
g2
Ntp763
Rp764
(dp765
g43
I9
sg45
g670
sg44
I01
sg42
g734
sg68
F-1.694745969485206
sbsI10
g0
(g38
g2
Ntp766
Rp767
(dp768
g43
I10
sg45
g670
sg44
I01
sg42
g742
sg68
F0.3772616360737088
sbssg140
I7
sg141
I10
sg142
I50
sg143
F302.0
sg144
I11
sg145
(lp769
g663
ag678
ag686
ag694
ag702
ag710
ag718
ag726
ag734
ag742
asg147
(lp770
sbsI8
g150
sI9
g0
(g24
g2
Ntp771
Rp772
(dp773
g28
Nsg29
I1
sg30
(dp774
I0
g0
(g32
g2
Ntp775
Rp776
(dp777
g36
(dp778
I1
g0
(g38
g2
Ntp779
Rp780
(dp781
g42
g776
sg43
I1
sg44
I01
sg45
g0
(g32
g2
Ntp782
Rp783
(dp784
g36
(dp785
sg50
I00
sg51
I11
sg52
g53
sg54
I0
sg55
F0.0
sg56
(dp786
I1
g780
sI2
g0
(g38
g2
Ntp787
Rp788
(dp789
g42
g0
(g32
g2
Ntp790
Rp791
(dp792
g36
(dp793
I2
g788
ssg50
I00
sg51
I0
sg52
g65
sg54
I0
sg55
F0.0
sg56
(dp794
sg67
I1
sbsg43
I2
sg44
I01
sg45
g783
sg68
F2.212860378954641
sbsI3
g0
(g38
g2
Ntp795
Rp796
(dp797
g43
I3
sg45
g783
sg44
I01
sg42
g0
(g32
g2
Ntp798
Rp799
(dp800
g36
(dp801
I3
g796
ssg50
I00
sg51
I0
sg52
g65
sg54
I0
sg55
F0.0
sg56
(dp802
sg67
I2
sbsg68
F-0.13151284003431196
sbsI4
g0
(g38
g2
Ntp803
Rp804
(dp805
g42
g0
(g32
g2
Ntp806
Rp807
(dp808
g36
(dp809
I4
g804
ssg50
I00
sg51
I0
sg52
g65
sg54
I0
sg55
F0.0
sg56
(dp810
sg67
I3
sbsg43
I4
sg44
I01
sg45
g783
sg68
F0.14667618648792863
sbsI5
g0
(g38
g2
Ntp811
Rp812
(dp813
g43
I5
sg45
g783
sg44
I01
sg42
g0
(g32
g2
Ntp814
Rp815
(dp816
g36
(dp817
I5
g812
ssg50
I00
sg51
I0
sg52
g65
sg54
I0
sg55
F0.0
sg56
(dp818
sg67
I4
sbsg68
F-0.9829451023202485
sbsI6
g0
(g38
g2
Ntp819
Rp820
(dp821
g43
I6
sg45
g783
sg44
I01
sg42
g0
(g32
g2
Ntp822
Rp823
(dp824
g36
(dp825
I6
g820
ssg50
I00
sg51
I0
sg52
g65
sg54
I0
sg55
F0.0
sg56
(dp826
sg67
I5
sbsg68
F-0.8486390191572885
sbsI7
g0
(g38
g2
Ntp827
Rp828
(dp829
g42
g0
(g32
g2
Ntp830
Rp831
(dp832
g36
(dp833
I7
g828
ssg50
I00
sg51
I0
sg52
g65
sg54
I0
sg55
F0.0
sg56
(dp834
sg67
I6
sbsg43
I7
sg44
I01
sg45
g783
sg68
F-1.5515347279049416
sbsI8
g0
(g38
g2
Ntp835
Rp836
(dp837
g43
I8
sg45
g783
sg44
I01
sg42
g0
(g32
g2
Ntp838
Rp839
(dp840
g36
(dp841
I8
g836
ssg50
I00
sg51
I0
sg52
g65
sg54
I0
sg55
F0.0
sg56
(dp842
sg67
I7
sbsg68
F0.14191497340914466
sbsI9
g0
(g38
g2
Ntp843
Rp844
(dp845
g43
I9
sg45
g783
sg44
I01
sg42
g0
(g32
g2
Ntp846
Rp847
(dp848
g36
(dp849
I9
g844
ssg50
I00
sg51
I0
sg52
g65
sg54
I0
sg55
F0.0
sg56
(dp850
sg67
I8
sbsg68
F2.068247665089737
sbsI10
g0
(g38
g2
Ntp851
Rp852
(dp853
g42
g0
(g32
g2
Ntp854
Rp855
(dp856
g36
(dp857
I10
g852
ssg50
I00
sg51
I0
sg52
g65
sg54
I0
sg55
F0.0
sg56
(dp858
sg67
I9
sbsg43
I10
sg44
I01
sg45
g783
sg68
F-1.436497136469665
sbssg67
I10
sbsg68
F-0.5239324435757864
sbssg50
I00
sg51
I0
sg52
g65
sg54
I0
sg55
F0.0
sg56
(dp859
sg67
I0
sbsI1
g791
sI2
g799
sI3
g807
sI4
g815
sI5
g823
sI6
g831
sI7
g839
sI8
g847
sI9
g855
sI10
g783
ssg134
(lp860
g783
asg9
(iinnovation
Innovation
p861
(dp862
g12
I11
sbsg138
(dp863
I1
g0
(g38
g2
Ntp864
Rp865
(dp866
g43
I1
sg45
g783
sg44
I01
sg42
g776
sg68
F1.6439804036734278
sbsI2
g0
(g38
g2
Ntp867
Rp868
(dp869
g43
I2
sg45
g783
sg44
I01
sg42
g791
sg68
F1.9694121006438943
sbsI3
g796
sI4
g0
(g38
g2
Ntp870
Rp871
(dp872
g43
I4
sg45
g783
sg44
I01
sg42
g807
sg68
F1.5120765561203238
sbsI5
g812
sI6
g820
sI7
g0
(g38
g2
Ntp873
Rp874
(dp875
g43
I7
sg45
g783
sg44
I01
sg42
g831
sg68
F-0.7609872936824085
sbsI8
g836
sI9
g844
sI10
g0
(g38
g2
Ntp876
Rp877
(dp878
g43
I10
sg45
g783
sg44
I01
sg42
g855
sg68
F-0.7647933100033848
sbssg140
I7
sg141
I10
sg142
I50
sg143
F61.0
sg144
I11
sg145
(lp879
g776
ag791
ag799
ag807
ag815
ag823
ag831
ag839
ag847
ag855
asg147
(lp880
sbsI10
g0
(g24
g2
Ntp881
Rp882
(dp883
g28
Nsg29
I1
sg30
(dp884
I0
g0
(g32
g2
Ntp885
Rp886
(dp887
g36
(dp888
I1
g0
(g38
g2
Ntp889
Rp890
(dp891
g43
I1
sg45
g0
(g32
g2
Ntp892
Rp893
(dp894
g36
(dp895
sg50
I00
sg51
I11
sg52
g53
sg54
I0
sg55
F0.0
sg56
(dp896
I1
g890
sI2
g0
(g38
g2
Ntp897
Rp898
(dp899
g43
I2
sg45
g893
sg44
I01
sg42
g0
(g32
g2
Ntp900
Rp901
(dp902
g36
(dp903
I2
g898
ssg50
I00
sg51
I0
sg52
g65
sg54
I0
sg55
F0.0
sg56
(dp904
sg67
I1
sbsg68
F2.005809742124061
sbsI3
g0
(g38
g2
Ntp905
Rp906
(dp907
g43
I3
sg45
g893
sg44
I01
sg42
g0
(g32
g2
Ntp908
Rp909
(dp910
g36
(dp911
I3
g906
ssg50
I00
sg51
I0
sg52
g65
sg54
I0
sg55
F0.0
sg56
(dp912
sg67
I2
sbsg68
F-0.5466616869225298
sbsI4
g0
(g38
g2
Ntp913
Rp914
(dp915
g43
I4
sg45
g893
sg44
I01
sg42
g0
(g32
g2
Ntp916
Rp917
(dp918
g36
(dp919
I4
g914
ssg50
I00
sg51
I0
sg52
g65
sg54
I0
sg55
F0.0
sg56
(dp920
sg67
I3
sbsg68
F1.721240244355732
sbsI5
g0
(g38
g2
Ntp921
Rp922
(dp923
g43
I5
sg45
g893
sg44
I01
sg42
g0
(g32
g2
Ntp924
Rp925
(dp926
g36
(dp927
I5
g922
ssg50
I00
sg51
I0
sg52
g65
sg54
I0
sg55
F0.0
sg56
(dp928
sg67
I4
sbsg68
F-0.9015934824274093
sbsI6
g0
(g38
g2
Ntp929
Rp930
(dp931
g43
I6
sg45
g893
sg44
I01
sg42
g0
(g32
g2
Ntp932
Rp933
(dp934
g36
(dp935
I6
g930
ssg50
I00
sg51
I0
sg52
g65
sg54
I0
sg55
F0.0
sg56
(dp936
sg67
I5
sbsg68
F-1.3560453999793916
sbsI7
g0
(g38
g2
Ntp937
Rp938
(dp939
g43
I7
sg45
g893
sg44
I01
sg42
g0
(g32
g2
Ntp940
Rp941
(dp942
g36
(dp943
I7
g938
ssg50
I00
sg51
I0
sg52
g65
sg54
I0
sg55
F0.0
sg56
(dp944
sg67
I6
sbsg68
F-1.6000554942928504
sbsI8
g0
(g38
g2
Ntp945
Rp946
(dp947
g43
I8
sg45
g893
sg44
I01
sg42
g0
(g32
g2
Ntp948
Rp949
(dp950
g36
(dp951
I8
g946
ssg50
I00
sg51
I0
sg52
g65
sg54
I0
sg55
F0.0
sg56
(dp952
sg67
I7
sbsg68
F-1.1104217286216658
sbsI9
g0
(g38
g2
Ntp953
Rp954
(dp955
g43
I9
sg45
g893
sg44
I01
sg42
g0
(g32
g2
Ntp956
Rp957
(dp958
g36
(dp959
I9
g954
ssg50
I00
sg51
I0
sg52
g65
sg54
I0
sg55
F0.0
sg56
(dp960
sg67
I8
sbsg68
F2.2937442592164583
sbsI10
g0
(g38
g2
Ntp961
Rp962
(dp963
g43
I10
sg45
g893
sg44
I01
sg42
g0
(g32
g2
Ntp964
Rp965
(dp966
g36
(dp967
I10
g962
ssg50
I00
sg51
I0
sg52
g65
sg54
I0
sg55
F0.0
sg56
(dp968
sg67
I9
sbsg68
F-0.8812624243234988
sbssg67
I10
sbsg44
I01
sg42
g886
sg68
F1.7601957816769767
sbssg50
I00
sg51
I0
sg52
g65
sg54
I0
sg55
F0.0
sg56
(dp969
sg67
I0
sbsI1
g901
sI2
g909
sI3
g917
sI4
g925
sI5
g933
sI6
g941
sI7
g949
sI8
g957
sI9
g965
sI10
g893
ssg134
(lp970
g893
asg9
(iinnovation
Innovation
p971
(dp972
g12
I11
sbsg138
(dp973
I1
g0
(g38
g2
Ntp974
Rp975
(dp976
g43
I1
sg45
g893
sg44
I01
sg42
g886
sg68
F1.8108101902835718
sbsI2
g0
(g38
g2
Ntp977
Rp978
(dp979
g43
I2
sg45
g893
sg44
I01
sg42
g901
sg68
F-1.3812312834120934
sbsI3
g0
(g38
g2
Ntp980
Rp981
(dp982
g43
I3
sg45
g893
sg44
I01
sg42
g909
sg68
F-0.7380030016517455
sbsI4
g0
(g38
g2
Ntp983
Rp984
(dp985
g43
I4
sg45
g893
sg44
I01
sg42
g917
sg68
F1.4736419854361256
sbsI5
g0
(g38
g2
Ntp986
Rp987
(dp988
g43
I5
sg45
g893
sg44
I01
sg42
g925
sg68
F-1.2190999152702164
sbsI6
g0
(g38
g2
Ntp989
Rp990
(dp991
g43
I6
sg45
g893
sg44
I01
sg42
g933
sg68
F-1.10480416795163
sbsI7
g0
(g38
g2
Ntp992
Rp993
(dp994
g43
I7
sg45
g893
sg44
I01
sg42
g941
sg68
F-1.872283405994413
sbsI8
g0
(g38
g2
Ntp995
Rp996
(dp997
g43
I8
sg45
g893
sg44
I01
sg42
g949
sg68
F1.9682647302362826
sbsI9
g0
(g38
g2
Ntp998
Rp999
(dp1000
g43
I9
sg45
g893
sg44
I01
sg42
g957
sg68
F-0.8172451804702139
sbsI10
g0
(g38
g2
Ntp1001
Rp1002
(dp1003
g43
I10
sg45
g893
sg44
I01
sg42
g965
sg68
F0.15316110302166186
sbssg140
I7
sg141
I10
sg142
I50
sg143
F-89.44000000000005
sg144
I11
sg145
(lp1004
g886
ag901
ag909
ag917
ag925
ag933
ag941
ag949
ag957
ag965
asg147
(lp1005
sbsI11
g290
sI12
g0
(g24
g2
Ntp1006
Rp1007
(dp1008
g28
Nsg29
I1
sg30
(dp1009
I0
g0
(g32
g2
Ntp1010
Rp1011
(dp1012
g36
(dp1013
I1
g0
(g38
g2
Ntp1014
Rp1015
(dp1016
g42
g1011
sg43
I1
sg44
I01
sg45
g0
(g32
g2
Ntp1017
Rp1018
(dp1019
g36
(dp1020
sg50
I00
sg51
I11
sg52
g53
sg54
I0
sg55
F0.0
sg56
(dp1021
I1
g1015
sI2
g0
(g38
g2
Ntp1022
Rp1023
(dp1024
g42
g0
(g32
g2
Ntp1025
Rp1026
(dp1027
g36
(dp1028
I2
g1023
ssg50
I00
sg51
I0
sg52
g65
sg54
I0
sg55
F0.0
sg56
(dp1029
sg67
I1
sbsg43
I2
sg44
I01
sg45
g1018
sg68
F-1.6409509038263985
sbsI3
g0
(g38
g2
Ntp1030
Rp1031
(dp1032
g42
g0
(g32
g2
Ntp1033
Rp1034
(dp1035
g36
(dp1036
I3
g1031
ssg50
I00
sg51
I0
sg52
g65
sg54
I0
sg55
F0.0
sg56
(dp1037
sg67
I2
sbsg43
I3
sg44
I01
sg45
g1018
sg68
F-1.8581644755742646
sbsI4
g0
(g38
g2
Ntp1038
Rp1039
(dp1040
g42
g0
(g32
g2
Ntp1041
Rp1042
(dp1043
g36
(dp1044
I4
g1039
ssg50
I00
sg51
I0
sg52
g65
sg54
I0
sg55
F0.0
sg56
(dp1045
sg67
I3
sbsg43
I4
sg44
I01
sg45
g1018
sg68
F-0.9704038400811351
sbsI5
g0
(g38
g2
Ntp1046
Rp1047
(dp1048
g42
g0
(g32
g2
Ntp1049
Rp1050
(dp1051
g36
(dp1052
I5
g1047
ssg50
I00
sg51
I0
sg52
g65
sg54
I0
sg55
F0.0
sg56
(dp1053
sg67
I4
sbsg43
I5
sg44
I01
sg45
g1018
sg68
F0.8067346214354614
sbsI6
g0
(g38
g2
Ntp1054
Rp1055
(dp1056
g42
g0
(g32
g2
Ntp1057
Rp1058
(dp1059
g36
(dp1060
I11
g0
(g38
g2
Ntp1061
Rp1062
(dp1063
g42
g1058
sg43
I11
sg44
I01
sg45
g0
(g32
g2
Ntp1064
Rp1065
(dp1066
g36
(dp1067
I12
g0
(g38
g2
Ntp1068
Rp1069
(dp1070
g42
g1065
sg43
I12
sg44
I01
sg45
g1018
sg68
F-0.530461553797997
sbssg50
I00
sg51
I7
sg52
g354
sg54
I0
sg55
F0.0
sg56
(dp1071
I11
g1062
ssg67
I11
sbsg68
F0.8778534896327685
sbsI6
g1055
ssg50
I00
sg51
I0
sg52
g65
sg54
I0
sg55
F0.0
sg56
(dp1072
sg67
I5
sbsg43
I6
sg44
I00
sg45
g1018
sg68
F1.3002851200109826
sbsI7
g0
(g38
g2
Ntp1073
Rp1074
(dp1075
g42
g0
(g32
g2
Ntp1076
Rp1077
(dp1078
g36
(dp1079
I7
g1074
ssg50
I00
sg51
I0
sg52
g65
sg54
I0
sg55
F0.0
sg56
(dp1080
sg67
I6
sbsg43
I7
sg44
I01
sg45
g1018
sg68
F0.4412264711869242
sbsI8
g0
(g38
g2
Ntp1081
Rp1082
(dp1083
g42
g0
(g32
g2
Ntp1084
Rp1085
(dp1086
g36
(dp1087
I8
g1082
ssg50
I00
sg51
I0
sg52
g65
sg54
I0
sg55
F0.0
sg56
(dp1088
sg67
I7
sbsg43
I8
sg44
I01
sg45
g1018
sg68
F-0.9467917437811812
sbsI9
g0
(g38
g2
Ntp1089
Rp1090
(dp1091
g42
g0
(g32
g2
Ntp1092
Rp1093
(dp1094
g36
(dp1095
I9
g1090
ssg50
I00
sg51
I0
sg52
g65
sg54
I0
sg55
F0.0
sg56
(dp1096
sg67
I8
sbsg43
I9
sg44
I01
sg45
g1018
sg68
F-1.7322915426594365
sbsI10
g0
(g38
g2
Ntp1097
Rp1098
(dp1099
g42
g0
(g32
g2
Ntp1100
Rp1101
(dp1102
g36
(dp1103
I10
g1098
ssg50
I00
sg51
I0
sg52
g65
sg54
I0
sg55
F0.0
sg56
(dp1104
sg67
I9
sbsg43
I10
sg44
I01
sg45
g1018
sg68
F-1.1988246630575299
sbsI12
g1069
ssg67
I10
sbsg68
F0.8943999317794524
sbssg50
I00
sg51
I0
sg52
g65
sg54
I0
sg55
F0.0
sg56
(dp1105
sg67
I0
sbsI1
g1026
sI2
g1034
sI3
g1042
sI4
g1050
sI5
g1058
sI6
g1077
sI7
g1085
sI8
g1093
sI9
g1101
sI10
g1018
sI11
g1065
ssg134
(lp1106
g1018
asg9
(iinnovation
Innovation
p1107
(dp1108
g12
I13
sbsg138
(dp1109
I1
g0
(g38
g2
Ntp1110
Rp1111
(dp1112
g42
g1011
sg43
I1
sg44
I01
sg45
g1018
sg68
F-1.179012821387703
sbsI2
g0
(g38
g2
Ntp1113
Rp1114
(dp1115
g42
g1026
sg43
I2
sg44
I01
sg45
g1018
sg68
F-1.7251275013621583
sbsI3
g0
(g38
g2
Ntp1116
Rp1117
(dp1118
g42
g1034
sg43
I3
sg44
I01
sg45
g1018
sg68
F-1.8280396869998596
sbsI4
g0
(g38
g2
Ntp1119
Rp1120
(dp1121
g42
g1042
sg43
I4
sg44
I01
sg45
g1018
sg68
F-0.9721627028599803
sbsI5
g0
(g38
g2
Ntp1122
Rp1123
(dp1124
g42
g1050
sg43
I5
sg44
I01
sg45
g1018
sg68
F0.8213891167701596
sbsI6
g0
(g38
g2
Ntp1125
Rp1126
(dp1127
g42
g1058
sg43
I6
sg44
I00
sg45
g1018
sg68
F1.3002851200109826
sbsI7
g0
(g38
g2
Ntp1128
Rp1129
(dp1130
g42
g1077
sg43
I7
sg44
I01
sg45
g1018
sg68
F0.4399788766852986
sbsI8
g0
(g38
g2
Ntp1131
Rp1132
(dp1133
g42
g1085
sg43
I8
sg44
I01
sg45
g1018
sg68
F0.2212064933715081
sbsI9
g0
(g38
g2
Ntp1134
Rp1135
(dp1136
g42
g1093
sg43
I9
sg44
I01
sg45
g1018
sg68
F-1.6754356163673265
sbsI10
g0
(g38
g2
Ntp1137
Rp1138
(dp1139
g42
g1101
sg43
I10
sg44
I01
sg45
g1018
sg68
F-1.1988246630575299
sbsI11
g0
(g38
g2
Ntp1140
Rp1141
(dp1142
g42
g1058
sg43
I11
sg44
I01
sg45
g1065
sg68
F0.8296940295432713
sbsI12
g0
(g38
g2
Ntp1143
Rp1144
(dp1145
g42
g1065
sg43
I12
sg44
I01
sg45
g1018
sg68
F-0.5775420445559871
sbssg140
I7
sg141
I10
sg142
I50
sg143
F-315.0
sg144
I12
sg145
(lp1146
g1011
ag1026
ag1034
ag1042
ag1050
ag1058
ag1077
ag1085
ag1093
ag1101
asg147
(lp1147
g1065
asbsI13
g882
sI14
g433
sI15
g659
sI16
g659
sI17
g0
(g24
g2
Ntp1148
Rp1149
(dp1150
g28
Nsg29
I1
sg30
(dp1151
I0
g0
(g32
g2
Ntp1152
Rp1153
(dp1154
g36
(dp1155
I1
g0
(g38
g2
Ntp1156
Rp1157
(dp1158
g42
g1153
sg43
I1
sg44
I01
sg45
g0
(g32
g2
Ntp1159
Rp1160
(dp1161
g36
(dp1162
sg50
I00
sg51
I11
sg52
g53
sg54
I0
sg55
F0.0
sg56
(dp1163
I1
g1157
sI2
g0
(g38
g2
Ntp1164
Rp1165
(dp1166
g43
I2
sg45
g1160
sg44
I01
sg42
g0
(g32
g2
Ntp1167
Rp1168
(dp1169
g36
(dp1170
I2
g1165
ssg50
I00
sg51
I0
sg52
g65
sg54
I0
sg55
F0.0
sg56
(dp1171
sg67
I1
sbsg68
F-0.3858828387108021
sbsI3
g0
(g38
g2
Ntp1172
Rp1173
(dp1174
g42
g0
(g32
g2
Ntp1175
Rp1176
(dp1177
g36
(dp1178
I3
g1173
ssg50
I00
sg51
I0
sg52
g65
sg54
I0
sg55
F0.0
sg56
(dp1179
sg67
I2
sbsg43
I3
sg44
I01
sg45
g1160
sg68
F-0.8507791012369484
sbsI4
g0
(g38
g2
Ntp1180
Rp1181
(dp1182
g42
g0
(g32
g2
Ntp1183
Rp1184
(dp1185
g36
(dp1186
I4
g1181
ssg50
I00
sg51
I0
sg52
g65
sg54
I0
sg55
F0.0
sg56
(dp1187
sg67
I3
sbsg43
I4
sg44
I01
sg45
g1160
sg68
F0.15990452111329173
sbsI5
g0
(g38
g2
Ntp1188
Rp1189
(dp1190
g42
g0
(g32
g2
Ntp1191
Rp1192
(dp1193
g36
(dp1194
I5
g1189
ssg50
I00
sg51
I0
sg52
g65
sg54
I0
sg55
F0.0
sg56
(dp1195
sg67
I4
sbsg43
I5
sg44
I01
sg45
g1160
sg68
F1.9779275498899602
sbsI6
g0
(g38
g2
Ntp1196
Rp1197
(dp1198
g42
g0
(g32
g2
Ntp1199
Rp1200
(dp1201
g36
(dp1202
I6
g1197
ssg50
I00
sg51
I0
sg52
g65
sg54
I0
sg55
F0.0
sg56
(dp1203
sg67
I5
sbsg43
I6
sg44
I01
sg45
g1160
sg68
F-1.5212224264117797
sbsI7
g0
(g38
g2
Ntp1204
Rp1205
(dp1206
g42
g0
(g32
g2
Ntp1207
Rp1208
(dp1209
g36
(dp1210
I11
g0
(g38
g2
Ntp1211
Rp1212
(dp1213
g42
g1208
sg43
I11
sg44
I01
sg45
g0
(g32
g2
Ntp1214
Rp1215
(dp1216
g36
(dp1217
I12
g0
(g38
g2
Ntp1218
Rp1219
(dp1220
g42
g1215
sg43
I12
sg44
I01
sg45
g1160
sg68
F0.8870225398754761
sbssg50
I00
sg51
I6
sg52
g244
sg54
I0
sg55
F0.0
sg56
(dp1221
I11
g1212
ssg67
I11
sbsg68
F0.9231192652816412
sbsI7
g1205
ssg50
I00
sg51
I0
sg52
g65
sg54
I0
sg55
F0.0
sg56
(dp1222
sg67
I6
sbsg43
I7
sg44
I00
sg45
g1160
sg68
F-1.4557369600875356
sbsI8
g0
(g38
g2
Ntp1223
Rp1224
(dp1225
g42
g0
(g32
g2
Ntp1226
Rp1227
(dp1228
g36
(dp1229
I8
g1224
ssg50
I00
sg51
I0
sg52
g65
sg54
I0
sg55
F0.0
sg56
(dp1230
sg67
I7
sbsg43
I8
sg44
I01
sg45
g1160
sg68
F-0.22697074649668142
sbsI9
g0
(g38
g2
Ntp1231
Rp1232
(dp1233
g42
g0
(g32
g2
Ntp1234
Rp1235
(dp1236
g36
(dp1237
I9
g1232
ssg50
I00
sg51
I0
sg52
g65
sg54
I0
sg55
F0.0
sg56
(dp1238
sg67
I8
sbsg43
I9
sg44
I01
sg45
g1160
sg68
F-0.7907063836373633
sbsI10
g0
(g38
g2
Ntp1239
Rp1240
(dp1241
g42
g0
(g32
g2
Ntp1242
Rp1243
(dp1244
g36
(dp1245
I10
g1240
ssg50
I00
sg51
I0
sg52
g65
sg54
I0
sg55
F0.0
sg56
(dp1246
sg67
I9
sbsg68
F-1.5594463467270847
sg44
I01
sg45
g1160
sg43
I10
sbsI12
g1219
ssg67
I10
sbsg68
F-1.6041942523039607
sbssg50
I00
sg51
I0
sg52
g65
sg54
I0
sg55
F0.0
sg56
(dp1247
sg67
I0
sbsI1
g1168
sI2
g1176
sI3
g1184
sI4
g1192
sI5
g1200
sI6
g1208
sI7
g1227
sI8
g1235
sI9
g1243
sI10
g1160
sI11
g1215
ssg134
(lp1248
g1160
asg9
(iinnovation
Innovation
p1249
(dp1250
g12
I13
sbsg138
(dp1251
I1
g0
(g38
g2
Ntp1252
Rp1253
(dp1254
g43
I1
sg45
g1160
sg44
I01
sg42
g1153
sg68
F-1.627016881226789
sbsI2
g1165
sI3
g0
(g38
g2
Ntp1255
Rp1256
(dp1257
g43
I3
sg45
g1160
sg44
I01
sg42
g1176
sg68
F0.912080736374766
sbsI4
g0
(g38
g2
Ntp1258
Rp1259
(dp1260
g43
I4
sg45
g1160
sg44
I01
sg42
g1184
sg68
F0.19728948132543161
sbsI5
g0
(g38
g2
Ntp1261
Rp1262
(dp1263
g43
I5
sg45
g1160
sg44
I01
sg42
g1192
sg68
F2.006052695927784
sbsI6
g0
(g38
g2
Ntp1264
Rp1265
(dp1266
g43
I6
sg45
g1160
sg44
I01
sg42
g1200
sg68
F-1.383053026907567
sbsI7
g0
(g38
g2
Ntp1267
Rp1268
(dp1269
g43
I7
sg45
g1160
sg44
I00
sg42
g1208
sg68
F-1.5200480063845243
sbsI8
g0
(g38
g2
Ntp1270
Rp1271
(dp1272
g43
I8
sg45
g1160
sg44
I01
sg42
g1227
sg68
F-0.43203218110903957
sbsI9
g0
(g38
g2
Ntp1273
Rp1274
(dp1275
g43
I9
sg45
g1160
sg44
I01
sg42
g1235
sg68
F-0.5882848095181327
sbsI10
g0
(g38
g2
Ntp1276
Rp1277
(dp1278
g43
I10
sg45
g1160
sg44
I01
sg42
g1243
sg68
F-1.7497000233908748
sbsI11
g0
(g38
g2
Ntp1279
Rp1280
(dp1281
g42
g1208
sg43
I11
sg44
I01
sg45
g1215
sg68
F0.7358812144125353
sbsI12
g1219
ssg140
I7
sg141
I10
sg142
I50
sg143
F-794.0
sg144
I12
sg145
(lp1282
g1153
ag1168
ag1176
ag1184
ag1192
ag1200
ag1208
ag1227
ag1235
ag1243
asg147
(lp1283
g1215
asbsI18
g150
sI19
g290
sI20
g772
sI21
g150
sI22
g290
sI23
g0
(g24
g2
Ntp1284
Rp1285
(dp1286
g28
Nsg29
I1
sg30
(dp1287
I0
g0
(g32
g2
Ntp1288
Rp1289
(dp1290
g36
(dp1291
I1
g0
(g38
g2
Ntp1292
Rp1293
(dp1294
g42
g1289
sg68
F-0.5239324435757864
sg44
I01
sg45
g0
(g32
g2
Ntp1295
Rp1296
(dp1297
g36
(dp1298
sg50
I00
sg51
I11
sg52
g53
sg54
I0
sg55
F0.0
sg56
(dp1299
I1
g1293
sI2
g0
(g38
g2
Ntp1300
Rp1301
(dp1302
g42
g0
(g32
g2
Ntp1303
Rp1304
(dp1305
g36
(dp1306
I2
g1301
ssg50
I00
sg51
I0
sg52
g65
sg54
I0
sg55
F0.0
sg56
(dp1307
sg67
I1
sbsg68
F2.212860378954641
sg44
I01
sg45
g1296
sg43
I2
sbsI3
g0
(g38
g2
Ntp1308
Rp1309
(dp1310
g42
g0
(g32
g2
Ntp1311
Rp1312
(dp1313
g36
(dp1314
I3
g1309
ssg50
I00
sg51
I0
sg52
g65
sg54
I0
sg55
F0.0
sg56
(dp1315
sg67
I2
sbsg43
I3
sg44
I01
sg45
g1296
sg68
F-0.13151284003431196
sbsI4
g0
(g38
g2
Ntp1316
Rp1317
(dp1318
g42
g0
(g32
g2
Ntp1319
Rp1320
(dp1321
g36
(dp1322
I4
g1317
ssg50
I00
sg51
I0
sg52
g65
sg54
I0
sg55
F0.0
sg56
(dp1323
sg67
I3
sbsg68
F0.14667618648792863
sg44
I01
sg45
g1296
sg43
I4
sbsI5
g0
(g38
g2
Ntp1324
Rp1325
(dp1326
g42
g0
(g32
g2
Ntp1327
Rp1328
(dp1329
g36
(dp1330
I5
g1325
ssg50
I00
sg51
I0
sg52
g65
sg54
I0
sg55
F0.0
sg56
(dp1331
sg67
I4
sbsg43
I5
sg44
I01
sg45
g1296
sg68
F-0.9829451023202485
sbsI6
g0
(g38
g2
Ntp1332
Rp1333
(dp1334
g42
g0
(g32
g2
Ntp1335
Rp1336
(dp1337
g36
(dp1338
I6
g1333
ssg50
I00
sg51
I0
sg52
g65
sg54
I0
sg55
F0.0
sg56
(dp1339
sg67
I5
sbsg43
I6
sg44
I01
sg45
g1296
sg68
F-0.8486390191572885
sbsI7
g0
(g38
g2
Ntp1340
Rp1341
(dp1342
g42
g0
(g32
g2
Ntp1343
Rp1344
(dp1345
g36
(dp1346
I7
g1341
ssg50
I00
sg51
I0
sg52
g65
sg54
I0
sg55
F0.0
sg56
(dp1347
sg67
I6
sbsg68
F-1.5515347279049416
sg44
I01
sg45
g1296
sg43
I7
sbsI8
g0
(g38
g2
Ntp1348
Rp1349
(dp1350
g42
g0
(g32
g2
Ntp1351
Rp1352
(dp1353
g36
(dp1354
I8
g1349
ssg50
I00
sg51
I0
sg52
g65
sg54
I0
sg55
F0.0
sg56
(dp1355
sg67
I7
sbsg43
I8
sg44
I01
sg45
g1296
sg68
F0.14191497340914466
sbsI9
g0
(g38
g2
Ntp1356
Rp1357
(dp1358
g42
g0
(g32
g2
Ntp1359
Rp1360
(dp1361
g36
(dp1362
I9
g1357
ssg50
I00
sg51
I0
sg52
g65
sg54
I0
sg55
F0.0
sg56
(dp1363
sg67
I8
sbsg43
I9
sg44
I01
sg45
g1296
sg68
F2.068247665089737
sbsI10
g0
(g38
g2
Ntp1364
Rp1365
(dp1366
g42
g0
(g32
g2
Ntp1367
Rp1368
(dp1369
g36
(dp1370
I10
g1365
ssg50
I00
sg51
I0
sg52
g65
sg54
I0
sg55
F0.0
sg56
(dp1371
sg67
I9
sbsg68
F-1.436497136469665
sg44
I01
sg45
g1296
sg43
I10
sbssg67
I10
sbsg43
I1
sbssg50
I00
sg51
I0
sg52
g65
sg54
I0
sg55
F0.0
sg56
(dp1372
sg67
I0
sbsI1
g1304
sI2
g1312
sI3
g1320
sI4
g1328
sI5
g1336
sI6
g1344
sI7
g1352
sI8
g1360
sI9
g1368
sI10
g1296
ssg134
(lp1373
g1296
asg9
(iinnovation
Innovation
p1374
(dp1375
g12
I11
sbsg138
(dp1376
I1
g0
(g38
g2
Ntp1377
Rp1378
(dp1379
g42
g1289
sg43
I1
sg44
I01
sg45
g1296
sg68
F1.6439804036734278
sbsI2
g0
(g38
g2
Ntp1380
Rp1381
(dp1382
g42
g1304
sg43
I2
sg44
I01
sg45
g1296
sg68
F1.9694121006438943
sbsI3
g1309
sI4
g0
(g38
g2
Ntp1383
Rp1384
(dp1385
g42
g1320
sg43
I4
sg44
I01
sg45
g1296
sg68
F1.5120765561203238
sbsI5
g1325
sI6
g1333
sI7
g0
(g38
g2
Ntp1386
Rp1387
(dp1388
g42
g1344
sg43
I7
sg44
I01
sg45
g1296
sg68
F-0.7609872936824085
sbsI8
g1349
sI9
g1357
sI10
g0
(g38
g2
Ntp1389
Rp1390
(dp1391
g42
g1368
sg43
I10
sg44
I01
sg45
g1296
sg68
F-0.7647933100033848
sbssg140
I7
sg141
I10
sg142
I50
sg143
F61.0
sg144
I11
sg145
(lp1392
g1289
ag1304
ag1312
ag1320
ag1328
ag1336
ag1344
ag1352
ag1360
ag1368
asg147
(lp1393
sbsI24
g433
sI25
g659
sI26
g0
(g24
g2
Ntp1394
Rp1395
(dp1396
g28
Nsg29
I1
sg30
(dp1397
I0
g0
(g32
g2
Ntp1398
Rp1399
(dp1400
g36
(dp1401
I1
g0
(g38
g2
Ntp1402
Rp1403
(dp1404
g42
g1399
sg43
I1
sg44
I01
sg45
g0
(g32
g2
Ntp1405
Rp1406
(dp1407
g36
(dp1408
sg50
I00
sg51
I11
sg52
g53
sg54
I0
sg55
F0.0
sg56
(dp1409
I1
g1403
sI2
g0
(g38
g2
Ntp1410
Rp1411
(dp1412
g42
g0
(g32
g2
Ntp1413
Rp1414
(dp1415
g36
(dp1416
I2
g1411
ssg50
I00
sg51
I0
sg52
g65
sg54
I0
sg55
F0.0
sg56
(dp1417
sg67
I1
sbsg43
I2
sg44
I01
sg45
g1406
sg68
F-1.6409509038263985
sbsI3
g0
(g38
g2
Ntp1418
Rp1419
(dp1420
g42
g0
(g32
g2
Ntp1421
Rp1422
(dp1423
g36
(dp1424
I3
g1419
ssg50
I00
sg51
I0
sg52
g65
sg54
I0
sg55
F0.0
sg56
(dp1425
sg67
I2
sbsg43
I3
sg44
I01
sg45
g1406
sg68
F-1.8581644755742646
sbsI4
g0
(g38
g2
Ntp1426
Rp1427
(dp1428
g42
g0
(g32
g2
Ntp1429
Rp1430
(dp1431
g36
(dp1432
I4
g1427
ssg50
I00
sg51
I0
sg52
g65
sg54
I0
sg55
F0.0
sg56
(dp1433
sg67
I3
sbsg43
I4
sg44
I01
sg45
g1406
sg68
F-0.9704038400811351
sbsI5
g0
(g38
g2
Ntp1434
Rp1435
(dp1436
g42
g0
(g32
g2
Ntp1437
Rp1438
(dp1439
g36
(dp1440
I5
g1435
ssg50
I00
sg51
I0
sg52
g65
sg54
I0
sg55
F0.0
sg56
(dp1441
sg67
I4
sbsg43
I5
sg44
I01
sg45
g1406
sg68
F0.8067346214354614
sbsI6
g0
(g38
g2
Ntp1442
Rp1443
(dp1444
g42
g0
(g32
g2
Ntp1445
Rp1446
(dp1447
g36
(dp1448
I11
g0
(g38
g2
Ntp1449
Rp1450
(dp1451
g42
g1446
sg43
I11
sg44
I01
sg45
g0
(g32
g2
Ntp1452
Rp1453
(dp1454
g36
(dp1455
I12
g0
(g38
g2
Ntp1456
Rp1457
(dp1458
g42
g1453
sg43
I12
sg44
I01
sg45
g1406
sg68
F-0.530461553797997
sbssg50
I00
sg51
I7
sg52
g354
sg54
I0
sg55
F0.0
sg56
(dp1459
I11
g1450
ssg67
I11
sbsg68
F0.8778534896327685
sbsI6
g1443
ssg50
I00
sg51
I0
sg52
g65
sg54
I0
sg55
F0.0
sg56
(dp1460
sg67
I5
sbsg43
I6
sg44
I00
sg45
g1406
sg68
F1.3002851200109826
sbsI7
g0
(g38
g2
Ntp1461
Rp1462
(dp1463
g42
g0
(g32
g2
Ntp1464
Rp1465
(dp1466
g36
(dp1467
I7
g1462
ssg50
I00
sg51
I0
sg52
g65
sg54
I0
sg55
F0.0
sg56
(dp1468
sg67
I6
sbsg43
I7
sg44
I01
sg45
g1406
sg68
F0.4412264711869242
sbsI8
g0
(g38
g2
Ntp1469
Rp1470
(dp1471
g42
g0
(g32
g2
Ntp1472
Rp1473
(dp1474
g36
(dp1475
I8
g1470
ssg50
I00
sg51
I0
sg52
g65
sg54
I0
sg55
F0.0
sg56
(dp1476
sg67
I7
sbsg43
I8
sg44
I01
sg45
g1406
sg68
F-0.9467917437811812
sbsI9
g0
(g38
g2
Ntp1477
Rp1478
(dp1479
g42
g0
(g32
g2
Ntp1480
Rp1481
(dp1482
g36
(dp1483
I9
g1478
ssg50
I00
sg51
I0
sg52
g65
sg54
I0
sg55
F0.0
sg56
(dp1484
sg67
I8
sbsg43
I9
sg44
I01
sg45
g1406
sg68
F-1.7322915426594365
sbsI10
g0
(g38
g2
Ntp1485
Rp1486
(dp1487
g42
g0
(g32
g2
Ntp1488
Rp1489
(dp1490
g36
(dp1491
I10
g1486
ssg50
I00
sg51
I0
sg52
g65
sg54
I0
sg55
F0.0
sg56
(dp1492
sg67
I9
sbsg43
I10
sg44
I01
sg45
g1406
sg68
F-1.1988246630575299
sbsI12
g1457
ssg67
I10
sbsg68
F0.8943999317794524
sbssg50
I00
sg51
I0
sg52
g65
sg54
I0
sg55
F0.0
sg56
(dp1493
sg67
I0
sbsI1
g1414
sI2
g1422
sI3
g1430
sI4
g1438
sI5
g1446
sI6
g1465
sI7
g1473
sI8
g1481
sI9
g1489
sI10
g1406
sI11
g1453
ssg134
(lp1494
g1406
asg9
(iinnovation
Innovation
p1495
(dp1496
g12
I13
sbsg138
(dp1497
I1
g0
(g38
g2
Ntp1498
Rp1499
(dp1500
g42
g1399
sg43
I1
sg44
I01
sg45
g1406
sg68
F-1.179012821387703
sbsI2
g0
(g38
g2
Ntp1501
Rp1502
(dp1503
g42
g1414
sg43
I2
sg44
I01
sg45
g1406
sg68
F-1.7251275013621583
sbsI3
g0
(g38
g2
Ntp1504
Rp1505
(dp1506
g42
g1422
sg43
I3
sg44
I01
sg45
g1406
sg68
F-1.8280396869998596
sbsI4
g0
(g38
g2
Ntp1507
Rp1508
(dp1509
g42
g1430
sg43
I4
sg44
I01
sg45
g1406
sg68
F-0.9721627028599803
sbsI5
g0
(g38
g2
Ntp1510
Rp1511
(dp1512
g42
g1438
sg43
I5
sg44
I01
sg45
g1406
sg68
F0.8213891167701596
sbsI6
g0
(g38
g2
Ntp1513
Rp1514
(dp1515
g42
g1446
sg43
I6
sg44
I00
sg45
g1406
sg68
F1.3002851200109826
sbsI7
g0
(g38
g2
Ntp1516
Rp1517
(dp1518
g42
g1465
sg43
I7
sg44
I01
sg45
g1406
sg68
F0.4399788766852986
sbsI8
g0
(g38
g2
Ntp1519
Rp1520
(dp1521
g42
g1473
sg43
I8
sg44
I01
sg45
g1406
sg68
F0.2212064933715081
sbsI9
g0
(g38
g2
Ntp1522
Rp1523
(dp1524
g42
g1481
sg43
I9
sg44
I01
sg45
g1406
sg68
F-1.6754356163673265
sbsI10
g0
(g38
g2
Ntp1525
Rp1526
(dp1527
g42
g1489
sg43
I10
sg44
I01
sg45
g1406
sg68
F-1.1988246630575299
sbsI11
g0
(g38
g2
Ntp1528
Rp1529
(dp1530
g42
g1446
sg43
I11
sg44
I01
sg45
g1453
sg68
F0.8296940295432713
sbsI12
g0
(g38
g2
Ntp1531
Rp1532
(dp1533
g42
g1453
sg43
I12
sg44
I01
sg45
g1406
sg68
F-0.5775420445559871
sbssg140
I7
sg141
I10
sg142
I50
sg143
F-315.0
sg144
I12
sg145
(lp1534
g1399
ag1414
ag1422
ag1430
ag1438
ag1446
ag1465
ag1473
ag1481
ag1489
asg147
(lp1535
g1453
asbsI27
g290
ssS'generation_number'
p1536
I7
sS'population_size'
p1537
I28
sS'representative'
p1538
g0
(g24
g2
Ntp1539
Rp1540
(dp1541
g28
Nsg29
I1
sg30
(dp1542
I0
g0
(g32
g2
Ntp1543
Rp1544
(dp1545
g36
(dp1546
I1
g0
(g38
g2
Ntp1547
Rp1548
(dp1549
g42
g1544
sg68
F-0.32299602298078467
sg44
I01
sg45
g0
(g32
g2
Ntp1550
Rp1551
(dp1552
g36
(dp1553
sg50
I00
sg51
I11
sg52
g53
sg54
I0
sg55
F0.0
sg56
(dp1554
I1
g1548
sI2
g0
(g38
g2
Ntp1555
Rp1556
(dp1557
g42
g0
(g32
g2
Ntp1558
Rp1559
(dp1560
g36
(dp1561
I2
g1556
ssg50
I00
sg51
I0
sg52
g65
sg54
I0
sg55
F0.0
sg56
(dp1562
sg67
I1
sbsg68
F1.9806645759853119
sg44
I01
sg45
g1551
sg43
I2
sbsI3
g0
(g38
g2
Ntp1563
Rp1564
(dp1565
g42
g0
(g32
g2
Ntp1566
Rp1567
(dp1568
g36
(dp1569
I3
g1564
ssg50
I00
sg51
I0
sg52
g65
sg54
I0
sg55
F0.0
sg56
(dp1570
sg67
I2
sbsg68
F-0.054432443209962766
sg44
I01
sg45
g1551
sg43
I3
sbsI4
g0
(g38
g2
Ntp1571
Rp1572
(dp1573
g42
g0
(g32
g2
Ntp1574
Rp1575
(dp1576
g36
(dp1577
I4
g1572
ssg50
I00
sg51
I0
sg52
g65
sg54
I0
sg55
F0.0
sg56
(dp1578
sg67
I3
sbsg68
F0.1633568770605791
sg44
I01
sg45
g1551
sg43
I4
sbsI5
g0
(g38
g2
Ntp1579
Rp1580
(dp1581
g42
g0
(g32
g2
Ntp1582
Rp1583
(dp1584
g36
(dp1585
I5
g1580
ssg50
I00
sg51
I0
sg52
g65
sg54
I0
sg55
F0.0
sg56
(dp1586
sg67
I4
sbsg68
F1.8886121032138985
sg44
I01
sg45
g1551
sg43
I5
sbsI6
g0
(g38
g2
Ntp1587
Rp1588
(dp1589
g42
g0
(g32
g2
Ntp1590
Rp1591
(dp1592
g36
(dp1593
I6
g1588
ssg50
I00
sg51
I0
sg52
g65
sg54
I0
sg55
F0.0
sg56
(dp1594
sg67
I5
sbsg68
F-1.3723075467093566
sg44
I01
sg45
g1551
sg43
I6
sbsI7
g0
(g38
g2
Ntp1595
Rp1596
(dp1597
g42
g0
(g32
g2
Ntp1598
Rp1599
(dp1600
g36
(dp1601
I7
g1596
ssg50
I00
sg51
I0
sg52
g65
sg54
I0
sg55
F0.0
sg56
(dp1602
sg67
I6
sbsg68
F-1.5142258561581996
sg44
I01
sg45
g1551
sg43
I7
sbsI8
g0
(g38
g2
Ntp1603
Rp1604
(dp1605
g42
g0
(g32
g2
Ntp1606
Rp1607
(dp1608
g36
(dp1609
I8
g1604
ssg50
I00
sg51
I0
sg52
g65
sg54
I0
sg55
F0.0
sg56
(dp1610
sg67
I7
sbsg68
F-0.08880709923262486
sg44
I01
sg45
g1551
sg43
I8
sbsI9
g0
(g38
g2
Ntp1611
Rp1612
(dp1613
g42
g0
(g32
g2
Ntp1614
Rp1615
(dp1616
g36
(dp1617
I9
g1612
ssg50
I00
sg51
I0
sg52
g65
sg54
I0
sg55
F0.0
sg56
(dp1618
sg67
I8
sbsg68
F1.965548504994918
sg44
I01
sg45
g1551
sg43
I9
sbsI10
g0
(g38
g2
Ntp1619
Rp1620
(dp1621
g42
g0
(g32
g2
Ntp1622
Rp1623
(dp1624
g36
(dp1625
I10
g1620
ssg50
I00
sg51
I0
sg52
g65
sg54
I0
sg55
F0.0
sg56
(dp1626
sg67
I9
sbsg68
F-1.5594463467270847
sg44
I01
sg45
g1551
sg43
I10
sbssg67
I10
sbsg43
I1
sbssg50
I00
sg51
I0
sg52
g65
sg54
I0
sg55
F0.0
sg56
(dp1627
sg67
I0
sbsI1
g1559
sI2
g1567
sI3
g1575
sI4
g1583
sI5
g1591
sI6
g1599
sI7
g1607
sI8
g1615
sI9
g1623
sI10
g1551
ssg134
(lp1628
g1551
asg9
g10
sg138
(dp1629
I1
g1548
sI2
g1556
sI3
g1564
sI4
g1572
sI5
g1580
sI6
g1588
sI7
g1596
sI8
g1604
sI9
g1612
sI10
g1620
ssg140
Nsg141
I10
sg142
I50
sg143
I0
sg144
I11
sg145
(lp1630
g1544
ag1559
ag1567
ag1575
ag1583
ag1591
ag1599
ag1607
ag1615
ag1623
asg147
(lp1631
sbsS'active'
p1632
I01
sS'avg_max_fitness_achieved'
p1633
I0
sg67
I0
sbsI1
g0
(g16
g2
Ntp1634
Rp1635
(dp1636
g20
I0
sg21
I0
sg22
(dp1637
I0
g0
(g24
g2
Ntp1638
Rp1639
(dp1640
g28
Nsg29
I1
sg30
(dp1641
I0
g0
(g32
g2
Ntp1642
Rp1643
(dp1644
g36
(dp1645
I1
g0
(g38
g2
Ntp1646
Rp1647
(dp1648
g42
g1643
sg43
I1
sg44
I00
sg45
g0
(g32
g2
Ntp1649
Rp1650
(dp1651
g36
(dp1652
sg50
I00
sg51
I11
sg52
g53
sg54
I0
sg55
F0.0
sg56
(dp1653
I1
g1647
sI2
g0
(g38
g2
Ntp1654
Rp1655
(dp1656
g42
g0
(g32
g2
Ntp1657
Rp1658
(dp1659
g36
(dp1660
I2
g1655
ssg50
I00
sg51
I0
sg52
g65
sg54
I0
sg55
F0.0
sg56
(dp1661
sg67
I1
sbsg43
I2
sg44
I01
sg45
g1650
sg68
F-0.7790818136573276
sbsI3
g0
(g38
g2
Ntp1662
Rp1663
(dp1664
g42
g0
(g32
g2
Ntp1665
Rp1666
(dp1667
g36
(dp1668
I3
g1663
ssg50
I00
sg51
I0
sg52
g65
sg54
I0
sg55
F0.0
sg56
(dp1669
sg67
I2
sbsg43
I3
sg44
I01
sg45
g1650
sg68
F-2.0716736791118606
sbsI4
g0
(g38
g2
Ntp1670
Rp1671
(dp1672
g42
g0
(g32
g2
Ntp1673
Rp1674
(dp1675
g36
(dp1676
I4
g1671
ssg50
I00
sg51
I0
sg52
g65
sg54
I0
sg55
F0.0
sg56
(dp1677
sg67
I3
sbsg68
F-0.13787420449113297
sg44
I01
sg45
g1650
sg43
I4
sbsI5
g0
(g38
g2
Ntp1678
Rp1679
(dp1680
g42
g0
(g32
g2
Ntp1681
Rp1682
(dp1683
g36
(dp1684
I5
g1679
sI13
g0
(g38
g2
Ntp1685
Rp1686
(dp1687
g42
g1682
sg43
I13
sg44
I01
sg45
g0
(g32
g2
Ntp1688
Rp1689
(dp1690
g36
(dp1691
I12
g0
(g38
g2
Ntp1692
Rp1693
(dp1694
g42
g1689
sg68
F-0.787897396458472
sg44
I01
sg45
g1650
sg43
I12
sbssg50
I00
sg51
I2
sg52
S'hidden'
p1695
sg54
I0
sg55
F0.0
sg56
(dp1696
I11
g0
(g38
g2
Ntp1697
Rp1698
(dp1699
g42
g1643
sg43
I11
sg44
I01
sg45
g1689
sg68
F-1.2612087254558293
sbsI13
g1686
ssg67
I11
sbsg68
F-1.6847653355295231
sbssg50
I00
sg51
I0
sg52
g65
sg54
I0
sg55
F0.0
sg56
(dp1700
sg67
I4
sbsg43
I5
sg44
I01
sg45
g1650
sg68
F-0.2279883136965628
sbsI6
g0
(g38
g2
Ntp1701
Rp1702
(dp1703
g42
g0
(g32
g2
Ntp1704
Rp1705
(dp1706
g36
(dp1707
I6
g1702
ssg50
I00
sg51
I0
sg52
g65
sg54
I0
sg55
F0.0
sg56
(dp1708
sg67
I5
sbsg68
F-0.7049053397610683
sg44
I01
sg45
g1650
sg43
I6
sbsI7
g0
(g38
g2
Ntp1709
Rp1710
(dp1711
g42
g0
(g32
g2
Ntp1712
Rp1713
(dp1714
g36
(dp1715
I7
g1710
ssg50
I00
sg51
I0
sg52
g65
sg54
I0
sg55
F0.0
sg56
(dp1716
sg67
I6
sbsg43
I7
sg44
I01
sg45
g1650
sg68
F-1.652964455939916
sbsI8
g0
(g38
g2
Ntp1717
Rp1718
(dp1719
g42
g0
(g32
g2
Ntp1720
Rp1721
(dp1722
g36
(dp1723
I8
g1718
ssg50
I00
sg51
I0
sg52
g65
sg54
I0
sg55
F0.0
sg56
(dp1724
sg67
I7
sbsg43
I8
sg44
I01
sg45
g1650
sg68
F-1.0031461640717616
sbsI9
g0
(g38
g2
Ntp1725
Rp1726
(dp1727
g42
g0
(g32
g2
Ntp1728
Rp1729
(dp1730
g36
(dp1731
I9
g1726
ssg50
I00
sg51
I0
sg52
g65
sg54
I0
sg55
F0.0
sg56
(dp1732
sg67
I8
sbsg43
I9
sg44
I01
sg45
g1650
sg68
F1.5533780952837668
sbsI10
g0
(g38
g2
Ntp1733
Rp1734
(dp1735
g42
g0
(g32
g2
Ntp1736
Rp1737
(dp1738
g36
(dp1739
I10
g1734
ssg50
I00
sg51
I0
sg52
g65
sg54
I0
sg55
F0.0
sg56
(dp1740
sg67
I9
sbsg43
I10
sg44
I01
sg45
g1650
sg68
F1.3189319603475713
sbsI12
g1693
ssg67
I10
sbsg68
F0.06573864334162328
sbsI11
g1698
ssg50
I00
sg51
I0
sg52
g65
sg54
I0
sg55
F0.0
sg56
(dp1741
sg67
I0
sbsI1
g1658
sI2
g1666
sI3
g1674
sI4
g1682
sI5
g1705
sI6
g1713
sI7
g1721
sI8
g1729
sI9
g1737
sI10
g1650
sI11
g1689
ssg134
(lp1742
g1650
asg9
(iinnovation
Innovation
p1743
(dp1744
g12
I14
sbsg138
(dp1745
I1
g0
(g38
g2
Ntp1746
Rp1747
(dp1748
g42
g1643
sg68
F-1.8884398257046495
sg44
I00
sg45
g1650
sg43
I1
sbsI2
g0
(g38
g2
Ntp1749
Rp1750
(dp1751
g42
g1658
sg68
F-0.6198821508589173
sg44
I01
sg45
g1650
sg43
I2
sbsI3
g0
(g38
g2
Ntp1752
Rp1753
(dp1754
g42
g1666
sg68
F-2.034244994572548
sg44
I01
sg45
g1650
sg43
I3
sbsI4
g0
(g38
g2
Ntp1755
Rp1756
(dp1757
g42
g1674
sg68
F-1.1923262087183915
sg44
I01
sg45
g1650
sg43
I4
sbsI5
g0
(g38
g2
Ntp1758
Rp1759
(dp1760
g42
g1682
sg68
F-0.160240879580337
sg44
I01
sg45
g1650
sg43
I5
sbsI6
g0
(g38
g2
Ntp1761
Rp1762
(dp1763
g42
g1705
sg68
F-1.6841721368232236
sg44
I01
sg45
g1650
sg43
I6
sbsI7
g0
(g38
g2
Ntp1764
Rp1765
(dp1766
g42
g1713
sg68
F-1.3996298285788167
sg44
I01
sg45
g1650
sg43
I7
sbsI8
g0
(g38
g2
Ntp1767
Rp1768
(dp1769
g42
g1721
sg68
F-0.9314082345763763
sg44
I01
sg45
g1650
sg43
I8
sbsI9
g0
(g38
g2
Ntp1770
Rp1771
(dp1772
g42
g1729
sg68
F1.6241865981140169
sg44
I01
sg45
g1650
sg43
I9
sbsI10
g0
(g38
g2
Ntp1773
Rp1774
(dp1775
g42
g1737
sg68
F1.334691088178977
sg44
I01
sg45
g1650
sg43
I10
sbsI11
g0
(g38
g2
Ntp1776
Rp1777
(dp1778
g43
I11
sg45
g1689
sg44
I01
sg42
g1643
sg68
F-1.3570222753445107
sbsI12
g0
(g38
g2
Ntp1779
Rp1780
(dp1781
g43
I12
sg45
g1650
sg44
I01
sg42
g1689
sg68
F-0.6348708077740699
sbsI13
g0
(g38
g2
Ntp1782
Rp1783
(dp1784
g43
I13
sg45
g1689
sg44
I01
sg42
g1682
sg68
F-1.637614061939003
sbssg140
I4
sg141
I10
sg142
I50
sg143
F-81.44000000000005
sg144
I12
sg145
(lp1785
g1643
ag1658
ag1666
ag1674
ag1682
ag1705
ag1713
ag1721
ag1729
ag1737
asg147
(lp1786
g1689
asbsI1
g0
(g24
g2
Ntp1787
Rp1788
(dp1789
g28
Nsg29
I1
sg30
(dp1790
I0
g0
(g32
g2
Ntp1791
Rp1792
(dp1793
g36
(dp1794
I1
g0
(g38
g2
Ntp1795
Rp1796
(dp1797
g43
I1
sg45
g0
(g32
g2
Ntp1798
Rp1799
(dp1800
g36
(dp1801
sg50
I00
sg51
I11
sg52
g53
sg54
I0
sg55
F0.0
sg56
(dp1802
I1
g1796
sI2
g0
(g38
g2
Ntp1803
Rp1804
(dp1805
g43
I2
sg45
g1799
sg44
I01
sg42
g0
(g32
g2
Ntp1806
Rp1807
(dp1808
g36
(dp1809
I2
g1804
ssg50
I00
sg51
I0
sg52
g65
sg54
I0
sg55
F0.0
sg56
(dp1810
sg67
I1
sbsg68
F-0.38419466797536705
sbsI3
g0
(g38
g2
Ntp1811
Rp1812
(dp1813
g43
I3
sg45
g1799
sg44
I01
sg42
g0
(g32
g2
Ntp1814
Rp1815
(dp1816
g36
(dp1817
I3
g1812
ssg50
I00
sg51
I0
sg52
g65
sg54
I0
sg55
F0.0
sg56
(dp1818
sg67
I2
sbsg68
F-2.152700499386887
sbsI4
g0
(g38
g2
Ntp1819
Rp1820
(dp1821
g43
I4
sg45
g1799
sg44
I01
sg42
g0
(g32
g2
Ntp1822
Rp1823
(dp1824
g36
(dp1825
I4
g1820
ssg50
I00
sg51
I0
sg52
g65
sg54
I0
sg55
F0.0
sg56
(dp1826
sg67
I3
sbsg68
F-1.7726250976331734
sbsI5
g0
(g38
g2
Ntp1827
Rp1828
(dp1829
g43
I5
sg45
g1799
sg44
I01
sg42
g0
(g32
g2
Ntp1830
Rp1831
(dp1832
g36
(dp1833
I5
g1828
sI13
g0
(g38
g2
Ntp1834
Rp1835
(dp1836
g43
I13
sg45
g0
(g32
g2
Ntp1837
Rp1838
(dp1839
g36
(dp1840
I12
g0
(g38
g2
Ntp1841
Rp1842
(dp1843
g43
I12
sg45
g1799
sg44
I01
sg42
g1838
sg68
F-1.221863761963827
sbssg50
I00
sg51
I2
sg52
g1695
sg54
I0
sg55
F0.0
sg56
(dp1844
I11
g0
(g38
g2
Ntp1845
Rp1846
(dp1847
g43
I11
sg45
g1838
sg44
I01
sg42
g1792
sg68
F-1.4367405120398793
sbsI13
g1835
ssg67
I11
sbsg44
I01
sg42
g1831
sg68
F-1.9810257652067575
sbssg50
I00
sg51
I0
sg52
g65
sg54
I0
sg55
F0.0
sg56
(dp1848
sg67
I4
sbsg68
F1.733407020593247
sbsI6
g0
(g38
g2
Ntp1849
Rp1850
(dp1851
g43
I6
sg45
g1799
sg44
I01
sg42
g0
(g32
g2
Ntp1852
Rp1853
(dp1854
g36
(dp1855
I6
g1850
ssg50
I00
sg51
I0
sg52
g65
sg54
I0
sg55
F0.0
sg56
(dp1856
sg67
I5
sbsg68
F1.703412601729322
sbsI7
g0
(g38
g2
Ntp1857
Rp1858
(dp1859
g43
I7
sg45
g1799
sg44
I01
sg42
g0
(g32
g2
Ntp1860
Rp1861
(dp1862
g36
(dp1863
I7
g1858
ssg50
I00
sg51
I0
sg52
g65
sg54
I0
sg55
F0.0
sg56
(dp1864
sg67
I6
sbsg68
F0.5491294500882186
sbsI8
g0
(g38
g2
Ntp1865
Rp1866
(dp1867
g43
I8
sg45
g1799
sg44
I01
sg42
g0
(g32
g2
Ntp1868
Rp1869
(dp1870
g36
(dp1871
I8
g1866
ssg50
I00
sg51
I0
sg52
g65
sg54
I0
sg55
F0.0
sg56
(dp1872
sg67
I7
sbsg68
F0.14152365206327344
sbsI9
g0
(g38
g2
Ntp1873
Rp1874
(dp1875
g43
I9
sg45
g1799
sg44
I01
sg42
g0
(g32
g2
Ntp1876
Rp1877
(dp1878
g36
(dp1879
I9
g1874
ssg50
I00
sg51
I0
sg52
g65
sg54
I0
sg55
F0.0
sg56
(dp1880
sg67
I8
sbsg68
F1.3607731879200038
sbsI10
g0
(g38
g2
Ntp1881
Rp1882
(dp1883
g43
I10
sg45
g1799
sg44
I01
sg42
g0
(g32
g2
Ntp1884
Rp1885
(dp1886
g36
(dp1887
I10
g1882
ssg50
I00
sg51
I0
sg52
g65
sg54
I0
sg55
F0.0
sg56
(dp1888
sg67
I9
sbsg68
F1.3683040578860197
sbsI12
g1842
ssg67
I10
sbsg44
I00
sg42
g1792
sg68
F0.6360854087208768
sbsI11
g1846
ssg50
I00
sg51
I0
sg52
g65
sg54
I0
sg55
F0.0
sg56
(dp1889
sg67
I0
sbsI1
g1807
sI2
g1815
sI3
g1823
sI4
g1831
sI5
g1853
sI6
g1861
sI7
g1869
sI8
g1877
sI9
g1885
sI10
g1799
sI11
g1838
ssg134
(lp1890
g1799
asg9
(iinnovation
Innovation
p1891
(dp1892
g12
I14
sbsg138
(dp1893
I1
g0
(g38
g2
Ntp1894
Rp1895
(dp1896
g42
g1792
sg43
I1
sg44
I00
sg45
g1799
sg68
F0.7245736403889259
sbsI2
g0
(g38
g2
Ntp1897
Rp1898
(dp1899
g42
g1807
sg43
I2
sg44
I01
sg45
g1799
sg68
F-0.3335756362320194
sbsI3
g0
(g38
g2
Ntp1900
Rp1901
(dp1902
g42
g1815
sg43
I3
sg44
I01
sg45
g1799
sg68
F-0.3699589915649786
sbsI4
g0
(g38
g2
Ntp1903
Rp1904
(dp1905
g42
g1823
sg43
I4
sg44
I01
sg45
g1799
sg68
F-1.799349914438567
sbsI5
g0
(g38
g2
Ntp1906
Rp1907
(dp1908
g42
g1831
sg43
I5
sg44
I01
sg45
g1799
sg68
F-0.20630828616915098
sbsI6
g0
(g38
g2
Ntp1909
Rp1910
(dp1911
g42
g1853
sg43
I6
sg44
I01
sg45
g1799
sg68
F1.703412601729322
sbsI7
g0
(g38
g2
Ntp1912
Rp1913
(dp1914
g42
g1861
sg43
I7
sg44
I01
sg45
g1799
sg68
F0.6452423969328778
sbsI8
g0
(g38
g2
Ntp1915
Rp1916
(dp1917
g42
g1869
sg43
I8
sg44
I01
sg45
g1799
sg68
F0.10435089096986987
sbsI9
g0
(g38
g2
Ntp1918
Rp1919
(dp1920
g42
g1877
sg43
I9
sg44
I01
sg45
g1799
sg68
F1.3864097316160184
sbsI10
g0
(g38
g2
Ntp1921
Rp1922
(dp1923
g42
g1885
sg43
I10
sg44
I01
sg45
g1799
sg68
F1.4794047330009703
sbsI11
g0
(g38
g2
Ntp1924
Rp1925
(dp1926
g42
g1792
sg68
F-1.3642222181600283
sg44
I01
sg45
g1838
sg43
I11
sbsI12
g0
(g38
g2
Ntp1927
Rp1928
(dp1929
g42
g1838
sg68
F-1.221863761963827
sg44
I01
sg45
g1799
sg43
I12
sbsI13
g0
(g38
g2
Ntp1930
Rp1931
(dp1932
g42
g1831
sg68
F-1.9375703434928093
sg44
I01
sg45
g1838
sg43
I13
sbssg140
I4
sg141
I10
sg142
I50
sg143
F-794.0
sg144
I12
sg145
(lp1933
g1792
ag1807
ag1815
ag1823
ag1831
ag1853
ag1861
ag1869
ag1877
ag1885
asg147
(lp1934
g1838
asbsI2
g0
(g24
g2
Ntp1935
Rp1936
(dp1937
g28
Nsg29
I1
sg30
(dp1938
I0
g0
(g32
g2
Ntp1939
Rp1940
(dp1941
g36
(dp1942
I1
g0
(g38
g2
Ntp1943
Rp1944
(dp1945
g42
g1940
sg43
I1
sg44
I00
sg45
g0
(g32
g2
Ntp1946
Rp1947
(dp1948
g36
(dp1949
sg50
I00
sg51
I11
sg52
g53
sg54
I0
sg55
F0.0
sg56
(dp1950
I1
g1944
sI2
g0
(g38
g2
Ntp1951
Rp1952
(dp1953
g43
I2
sg45
g1947
sg44
I01
sg42
g0
(g32
g2
Ntp1954
Rp1955
(dp1956
g36
(dp1957
I2
g1952
ssg50
I00
sg51
I0
sg52
g65
sg54
I0
sg55
F0.0
sg56
(dp1958
sg67
I1
sbsg68
F-0.36071458483292873
sbsI3
g0
(g38
g2
Ntp1959
Rp1960
(dp1961
g43
I3
sg45
g1947
sg44
I01
sg42
g0
(g32
g2
Ntp1962
Rp1963
(dp1964
g36
(dp1965
I3
g1960
ssg50
I00
sg51
I0
sg52
g65
sg54
I0
sg55
F0.0
sg56
(dp1966
sg67
I2
sbsg68
F-0.6128981052050052
sbsI4
g0
(g38
g2
Ntp1967
Rp1968
(dp1969
g43
I4
sg45
g1947
sg44
I01
sg42
g0
(g32
g2
Ntp1970
Rp1971
(dp1972
g36
(dp1973
I4
g1968
ssg50
I00
sg51
I0
sg52
g65
sg54
I0
sg55
F0.0
sg56
(dp1974
sg67
I3
sbsg68
F-1.0808287340327456
sbsI5
g0
(g38
g2
Ntp1975
Rp1976
(dp1977
g42
g0
(g32
g2
Ntp1978
Rp1979
(dp1980
g36
(dp1981
I5
g1976
sI13
g0
(g38
g2
Ntp1982
Rp1983
(dp1984
g43
I13
sg45
g0
(g32
g2
Ntp1985
Rp1986
(dp1987
g36
(dp1988
I12
g0
(g38
g2
Ntp1989
Rp1990
(dp1991
g43
I12
sg45
g1947
sg44
I01
sg42
g1986
sg68
F-0.6037174947850802
sbssg50
I00
sg51
I2
sg52
g1695
sg54
I0
sg55
F0.0
sg56
(dp1992
I11
g0
(g38
g2
Ntp1993
Rp1994
(dp1995
g43
I11
sg45
g1986
sg44
I01
sg42
g1940
sg68
F1.6033599557175005
sbsI13
g1983
ssg67
I11
sbsg44
I01
sg42
g1979
sg68
F0.856069454215936
sbssg50
I00
sg51
I0
sg52
g65
sg54
I0
sg55
F0.0
sg56
(dp1996
sg67
I4
sbsg43
I5
sg44
I01
sg45
g1947
sg68
F2.0537843334542445
sbsI6
g0
(g38
g2
Ntp1997
Rp1998
(dp1999
g43
I6
sg45
g1947
sg44
I01
sg42
g0
(g32
g2
Ntp2000
Rp2001
(dp2002
g36
(dp2003
I6
g1998
ssg50
I00
sg51
I0
sg52
g65
sg54
I0
sg55
F0.0
sg56
(dp2004
sg67
I5
sbsg68
F-1.16469506350368
sbsI7
g0
(g38
g2
Ntp2005
Rp2006
(dp2007
g43
I7
sg45
g1947
sg44
I01
sg42
g0
(g32
g2
Ntp2008
Rp2009
(dp2010
g36
(dp2011
I7
g2006
ssg50
I00
sg51
I0
sg52
g65
sg54
I0
sg55
F0.0
sg56
(dp2012
sg67
I6
sbsg68
F-1.4778840791167749
sbsI8
g0
(g38
g2
Ntp2013
Rp2014
(dp2015
g43
I8
sg45
g1947
sg44
I01
sg42
g0
(g32
g2
Ntp2016
Rp2017
(dp2018
g36
(dp2019
I8
g2014
ssg50
I00
sg51
I0
sg52
g65
sg54
I0
sg55
F0.0
sg56
(dp2020
sg67
I7
sbsg68
F-1.195658422476968
sbsI9
g0
(g38
g2
Ntp2021
Rp2022
(dp2023
g43
I9
sg45
g1947
sg44
I01
sg42
g0
(g32
g2
Ntp2024
Rp2025
(dp2026
g36
(dp2027
I9
g2022
ssg50
I00
sg51
I0
sg52
g65
sg54
I0
sg55
F0.0
sg56
(dp2028
sg67
I8
sbsg68
F1.5167796898352777
sbsI10
g0
(g38
g2
Ntp2029
Rp2030
(dp2031
g43
I10
sg45
g1947
sg44
I01
sg42
g0
(g32
g2
Ntp2032
Rp2033
(dp2034
g36
(dp2035
I10
g2030
ssg50
I00
sg51
I0
sg52
g65
sg54
I0
sg55
F0.0
sg56
(dp2036
sg67
I9
sbsg68
F1.261686373561013
sbsI12
g1990
ssg67
I10
sbsg68
F0.06573864334162328
sbsI11
g1994
ssg50
I00
sg51
I0
sg52
g65
sg54
I0
sg55
F0.0
sg56
(dp2037
sg67
I0
sbsI1
g1955
sI2
g1963
sI3
g1971
sI4
g1979
sI5
g2001
sI6
g2009
sI7
g2017
sI8
g2025
sI9
g2033
sI10
g1947
sI11
g1986
ssg134
(lp2038
g1947
asg9
(iinnovation
Innovation
p2039
(dp2040
g12
I14
sbsg138
(dp2041
I1
g0
(g38
g2
Ntp2042
Rp2043
(dp2044
g42
g1940
sg68
F-2.1508943044342104
sg44
I00
sg45
g1947
sg43
I1
sbsI2
g0
(g38
g2
Ntp2045
Rp2046
(dp2047
g42
g1955
sg68
F-1.4284019483902253
sg44
I01
sg45
g1947
sg43
I2
sbsI3
g0
(g38
g2
Ntp2048
Rp2049
(dp2050
g42
g1963
sg68
F-0.6128981052050052
sg44
I01
sg45
g1947
sg43
I3
sbsI4
g0
(g38
g2
Ntp2051
Rp2052
(dp2053
g42
g1971
sg68
F1.0590276696513707
sg44
I01
sg45
g1947
sg43
I4
sbsI5
g0
(g38
g2
Ntp2054
Rp2055
(dp2056
g42
g1979
sg68
F1.6141095075040588
sg44
I01
sg45
g1947
sg43
I5
sbsI6
g0
(g38
g2
Ntp2057
Rp2058
(dp2059
g42
g2001
sg68
F1.635933776984462
sg44
I01
sg45
g1947
sg43
I6
sbsI7
g0
(g38
g2
Ntp2060
Rp2061
(dp2062
g42
g2009
sg68
F0.2675651630230458
sg44
I01
sg45
g1947
sg43
I7
sbsI8
g0
(g38
g2
Ntp2063
Rp2064
(dp2065
g42
g2017
sg68
F-1.195658422476968
sg44
I01
sg45
g1947
sg43
I8
sbsI9
g0
(g38
g2
Ntp2066
Rp2067
(dp2068
g42
g2025
sg68
F1.6355701939779141
sg44
I01
sg45
g1947
sg43
I9
sbsI10
g0
(g38
g2
Ntp2069
Rp2070
(dp2071
g42
g2033
sg68
F1.2441126181829179
sg44
I01
sg45
g1947
sg43
I10
sbsI11
g1994
sI12
g0
(g38
g2
Ntp2072
Rp2073
(dp2074
g43
I12
sg45
g1947
sg44
I01
sg42
g1986
sg68
F-0.6037174947850802
sbsI13
g1983
ssg140
I4
sg141
I10
sg142
I50
sg143
F-794.0
sg144
I12
sg145
(lp2075
g1940
ag1955
ag1963
ag1971
ag1979
ag2001
ag2009
ag2017
ag2025
ag2033
asg147
(lp2076
g1986
asbsI3
g0
(g24
g2
Ntp2077
Rp2078
(dp2079
g28
Nsg29
I1
sg30
(dp2080
I0
g0
(g32
g2
Ntp2081
Rp2082
(dp2083
g36
(dp2084
I1
g0
(g38
g2
Ntp2085
Rp2086
(dp2087
g43
I1
sg45
g0
(g32
g2
Ntp2088
Rp2089
(dp2090
g36
(dp2091
sg50
I00
sg51
I11
sg52
g53
sg54
I0
sg55
F0.0
sg56
(dp2092
I1
g2086
sI2
g0
(g38
g2
Ntp2093
Rp2094
(dp2095
g43
I2
sg45
g2089
sg44
I01
sg42
g0
(g32
g2
Ntp2096
Rp2097
(dp2098
g36
(dp2099
I2
g2094
ssg50
I00
sg51
I0
sg52
g65
sg54
I0
sg55
F0.0
sg56
(dp2100
sg67
I1
sbsg68
F-1.2493369187522063
sbsI3
g0
(g38
g2
Ntp2101
Rp2102
(dp2103
g43
I3
sg45
g2089
sg44
I01
sg42
g0
(g32
g2
Ntp2104
Rp2105
(dp2106
g36
(dp2107
I3
g2102
ssg50
I00
sg51
I0
sg52
g65
sg54
I0
sg55
F0.0
sg56
(dp2108
sg67
I2
sbsg68
F-2.297273686883573
sbsI4
g0
(g38
g2
Ntp2109
Rp2110
(dp2111
g42
g0
(g32
g2
Ntp2112
Rp2113
(dp2114
g36
(dp2115
I4
g2110
ssg50
I00
sg51
I0
sg52
g65
sg54
I0
sg55
F0.0
sg56
(dp2116
sg67
I3
sbsg68
F-1.0808287340327456
sg44
I01
sg45
g2089
sg43
I4
sbsI5
g0
(g38
g2
Ntp2117
Rp2118
(dp2119
g43
I5
sg45
g2089
sg44
I01
sg42
g0
(g32
g2
Ntp2120
Rp2121
(dp2122
g36
(dp2123
I5
g2118
sI13
g0
(g38
g2
Ntp2124
Rp2125
(dp2126
g42
g2121
sg68
F-1.160985678420039
sg44
I01
sg45
g0
(g32
g2
Ntp2127
Rp2128
(dp2129
g36
(dp2130
I12
g0
(g38
g2
Ntp2131
Rp2132
(dp2133
g43
I12
sg45
g2089
sg44
I01
sg42
g2128
sg68
F-0.9860984198726148
sbssg50
I00
sg51
I2
sg52
g1695
sg54
I0
sg55
F0.0
sg56
(dp2134
I11
g0
(g38
g2
Ntp2135
Rp2136
(dp2137
g42
g2082
sg68
F-1.0222921585781997
sg44
I01
sg45
g2128
sg43
I11
sbsI13
g2125
sI14
g0
(g38
g2
Ntp2138
Rp2139
(dp2140
g42
g0
(g32
g2
Ntp2141
Rp2142
(dp2143
g36
(dp2144
I9
g0
(g38
g2
Ntp2145
Rp2146
(dp2147
g42
g2142
sg68
F1.5167796898352777
sg44
I01
sg45
g2089
sg43
I9
sbsI14
g2139
ssg50
I00
sg51
I0
sg52
g65
sg54
I0
sg55
F0.0
sg56
(dp2148
sg67
I8
sbsg43
I14
sg44
I01
sg45
g2128
sg68
F-0.10376421609476841
sbssg67
I11
sbsg43
I13
sbssg50
I00
sg51
I0
sg52
g65
sg54
I0
sg55
F0.0
sg56
(dp2149
sg67
I4
sbsg68
F1.842119925229857
sbsI6
g0
(g38
g2
Ntp2150
Rp2151
(dp2152
g42
g0
(g32
g2
Ntp2153
Rp2154
(dp2155
g36
(dp2156
I6
g2151
ssg50
I00
sg51
I0
sg52
g65
sg54
I0
sg55
F0.0
sg56
(dp2157
sg67
I5
sbsg68
F-1.16469506350368
sg44
I01
sg45
g2089
sg43
I6
sbsI7
g0
(g38
g2
Ntp2158
Rp2159
(dp2160
g42
g0
(g32
g2
Ntp2161
Rp2162
(dp2163
g36
(dp2164
I7
g2159
ssg50
I00
sg51
I0
sg52
g65
sg54
I0
sg55
F0.0
sg56
(dp2165
sg67
I6
sbsg68
F-1.4778840791167749
sg44
I01
sg45
g2089
sg43
I7
sbsI8
g0
(g38
g2
Ntp2166
Rp2167
(dp2168
g42
g0
(g32
g2
Ntp2169
Rp2170
(dp2171
g36
(dp2172
I8
g2167
ssg50
I00
sg51
I0
sg52
g65
sg54
I0
sg55
F0.0
sg56
(dp2173
sg67
I7
sbsg68
F-1.2227297387599099
sg44
I01
sg45
g2089
sg43
I8
sbsI9
g2146
sI10
g0
(g38
g2
Ntp2174
Rp2175
(dp2176
g42
g0
(g32
g2
Ntp2177
Rp2178
(dp2179
g36
(dp2180
I10
g2175
ssg50
I00
sg51
I0
sg52
g65
sg54
I0
sg55
F0.0
sg56
(dp2181
sg67
I9
sbsg68
F1.261686373561013
sg44
I01
sg45
g2089
sg43
I10
sbsI12
g2132
ssg67
I10
sbsg44
I00
sg42
g2082
sg68
F0.5887515909458436
sbsI11
g2136
ssg50
I00
sg51
I0
sg52
g65
sg54
I0
sg55
F0.0
sg56
(dp2182
sg67
I0
sbsI1
g2097
sI2
g2105
sI3
g2113
sI4
g2121
sI5
g2154
sI6
g2162
sI7
g2170
sI8
g2142
sI9
g2178
sI10
g2089
sI11
g2128
ssg134
(lp2183
g2089
asg9
(iinnovation
Innovation
p2184
(dp2185
g12
I15
sbsg138
(dp2186
I1
g0
(g38
g2
Ntp2187
Rp2188
(dp2189
g42
g2082
sg43
I1
sg44
I00
sg45
g2089
sg68
F0.5905961632587223
sbsI2
g0
(g38
g2
Ntp2190
Rp2191
(dp2192
g42
g2097
sg43
I2
sg44
I01
sg45
g2089
sg68
F-1.2249077638737182
sbsI3
g0
(g38
g2
Ntp2193
Rp2194
(dp2195
g42
g2105
sg43
I3
sg44
I01
sg45
g2089
sg68
F0.05597652650692894
sbsI4
g0
(g38
g2
Ntp2196
Rp2197
(dp2198
g42
g2113
sg43
I4
sg44
I01
sg45
g2089
sg68
F-0.24980431328598757
sbsI5
g0
(g38
g2
Ntp2199
Rp2200
(dp2201
g42
g2121
sg43
I5
sg44
I01
sg45
g2089
sg68
F-1.254366982172628
sbsI6
g0
(g38
g2
Ntp2202
Rp2203
(dp2204
g42
g2154
sg43
I6
sg44
I01
sg45
g2089
sg68
F0.4550987659061603
sbsI7
g0
(g38
g2
Ntp2205
Rp2206
(dp2207
g42
g2162
sg43
I7
sg44
I01
sg45
g2089
sg68
F-1.6276273312419987
sbsI8
g0
(g38
g2
Ntp2208
Rp2209
(dp2210
g42
g2170
sg43
I8
sg44
I01
sg45
g2089
sg68
F-1.712842429511213
sbsI9
g0
(g38
g2
Ntp2211
Rp2212
(dp2213
g42
g2142
sg43
I9
sg44
I01
sg45
g2089
sg68
F1.525798623675481
sbsI10
g0
(g38
g2
Ntp2214
Rp2215
(dp2216
g42
g2178
sg43
I10
sg44
I01
sg45
g2089
sg68
F1.2303425825097865
sbsI11
g2136
sI12
g0
(g38
g2
Ntp2217
Rp2218
(dp2219
g42
g2128
sg68
F-1.0485781675556316
sg44
I01
sg45
g2089
sg43
I12
sbsI13
g2125
sI14
g2139
ssg140
I4
sg141
I10
sg142
I50
sg143
F-808.0
sg144
I12
sg145
(lp2220
g2082
ag2097
ag2105
ag2113
ag2121
ag2154
ag2162
ag2170
ag2142
ag2178
asg147
(lp2221
g2128
asbsI4
g0
(g24
g2
Ntp2222
Rp2223
(dp2224
g28
Nsg29
I1
sg30
(dp2225
I0
g0
(g32
g2
Ntp2226
Rp2227
(dp2228
g36
(dp2229
I1
g0
(g38
g2
Ntp2230
Rp2231
(dp2232
g43
I1
sg45
g0
(g32
g2
Ntp2233
Rp2234
(dp2235
g36
(dp2236
sg50
I00
sg51
I11
sg52
g53
sg54
I0
sg55
F0.0
sg56
(dp2237
I1
g2231
sI2
g0
(g38
g2
Ntp2238
Rp2239
(dp2240
g43
I2
sg45
g2234
sg44
I01
sg42
g0
(g32
g2
Ntp2241
Rp2242
(dp2243
g36
(dp2244
I2
g2239
ssg50
I00
sg51
I0
sg52
g65
sg54
I0
sg55
F0.0
sg56
(dp2245
sg67
I1
sbsg68
F1.6886475945754111
sbsI3
g0
(g38
g2
Ntp2246
Rp2247
(dp2248
g43
I3
sg45
g2234
sg44
I01
sg42
g0
(g32
g2
Ntp2249
Rp2250
(dp2251
g36
(dp2252
I3
g2247
ssg50
I00
sg51
I0
sg52
g65
sg54
I0
sg55
F0.0
sg56
(dp2253
sg67
I2
sbsg68
F-1.9149748066747345
sbsI4
g0
(g38
g2
Ntp2254
Rp2255
(dp2256
g43
I4
sg45
g2234
sg44
I01
sg42
g0
(g32
g2
Ntp2257
Rp2258
(dp2259
g36
(dp2260
I4
g2255
ssg50
I00
sg51
I0
sg52
g65
sg54
I0
sg55
F0.0
sg56
(dp2261
sg67
I3
sbsg68
F0.1006005129108392
sbsI5
g0
(g38
g2
Ntp2262
Rp2263
(dp2264
g43
I5
sg45
g2234
sg44
I01
sg42
g0
(g32
g2
Ntp2265
Rp2266
(dp2267
g36
(dp2268
I5
g2263
sI13
g0
(g38
g2
Ntp2269
Rp2270
(dp2271
g43
I13
sg45
g0
(g32
g2
Ntp2272
Rp2273
(dp2274
g36
(dp2275
I12
g0
(g38
g2
Ntp2276
Rp2277
(dp2278
g43
I12
sg45
g2234
sg44
I01
sg42
g2273
sg68
F-0.7021458469226804
sbssg50
I00
sg51
I2
sg52
g1695
sg54
I0
sg55
F0.0
sg56
(dp2279
I11
g0
(g38
g2
Ntp2280
Rp2281
(dp2282
g43
I11
sg45
g2273
sg44
I01
sg42
g2227
sg68
F-0.3951894594700178
sbsI13
g2270
ssg67
I11
sbsg44
I01
sg42
g2266
sg68
F1.6719225978129502
sbssg50
I00
sg51
I0
sg52
g65
sg54
I0
sg55
F0.0
sg56
(dp2283
sg67
I4
sbsg68
F1.6410370374524208
sbsI6
g0
(g38
g2
Ntp2284
Rp2285
(dp2286
g43
I6
sg45
g2234
sg44
I01
sg42
g0
(g32
g2
Ntp2287
Rp2288
(dp2289
g36
(dp2290
I6
g2285
ssg50
I00
sg51
I0
sg52
g65
sg54
I0
sg55
F0.0
sg56
(dp2291
sg67
I5
sbsg68
F1.359089088410986
sbsI7
g0
(g38
g2
Ntp2292
Rp2293
(dp2294
g43
I7
sg45
g2234
sg44
I01
sg42
g0
(g32
g2
Ntp2295
Rp2296
(dp2297
g36
(dp2298
I7
g2293
ssg50
I00
sg51
I0
sg52
g65
sg54
I0
sg55
F0.0
sg56
(dp2299
sg67
I6
sbsg68
F0.2413572667314811
sbsI8
g0
(g38
g2
Ntp2300
Rp2301
(dp2302
g42
g0
(g32
g2
Ntp2303
Rp2304
(dp2305
g36
(dp2306
I8
g2301
ssg50
I00
sg51
I0
sg52
g65
sg54
I0
sg55
F0.0
sg56
(dp2307
sg67
I7
sbsg68
F-1.2227297387599099
sg44
I01
sg45
g2234
sg43
I8
sbsI9
g0
(g38
g2
Ntp2308
Rp2309
(dp2310
g43
I9
sg45
g2234
sg44
I01
sg42
g0
(g32
g2
Ntp2311
Rp2312
(dp2313
g36
(dp2314
I9
g2309
ssg50
I00
sg51
I0
sg52
g65
sg54
I0
sg55
F0.0
sg56
(dp2315
sg67
I8
sbsg68
F1.56040852975238
sbsI10
g0
(g38
g2
Ntp2316
Rp2317
(dp2318
g43
I10
sg45
g2234
sg44
I01
sg42
g0
(g32
g2
Ntp2319
Rp2320
(dp2321
g36
(dp2322
I10
g2317
ssg50
I00
sg51
I0
sg52
g65
sg54
I0
sg55
F0.0
sg56
(dp2323
sg67
I9
sbsg68
F1.1503978352640516
sbsI12
g2277
ssg67
I10
sbsg44
I00
sg42
g2227
sg68
F-0.3502613851223577
sbsI11
g2281
ssg50
I00
sg51
I0
sg52
g65
sg54
I0
sg55
F0.0
sg56
(dp2324
sg67
I0
sbsI1
g2242
sI2
g2250
sI3
g2258
sI4
g2266
sI5
g2288
sI6
g2296
sI7
g2304
sI8
g2312
sI9
g2320
sI10
g2234
sI11
g2273
ssg134
(lp2325
g2234
asg9
(iinnovation
Innovation
p2326
(dp2327
g12
I14
sbsg138
(dp2328
I1
g0
(g38
g2
Ntp2329
Rp2330
(dp2331
g42
g2227
sg43
I1
sg44
I00
sg45
g2234
sg68
F-0.44181068511516963
sbsI2
g0
(g38
g2
Ntp2332
Rp2333
(dp2334
g42
g2242
sg43
I2
sg44
I01
sg45
g2234
sg68
F1.6501993160559218
sbsI3
g0
(g38
g2
Ntp2335
Rp2336
(dp2337
g42
g2250
sg43
I3
sg44
I01
sg45
g2234
sg68
F-1.9450206051229626
sbsI4
g0
(g38
g2
Ntp2338
Rp2339
(dp2340
g42
g2258
sg43
I4
sg44
I01
sg45
g2234
sg68
F0.12059509319602729
sbsI5
g0
(g38
g2
Ntp2341
Rp2342
(dp2343
g42
g2266
sg43
I5
sg44
I01
sg45
g2234
sg68
F1.573122305028825
sbsI6
g0
(g38
g2
Ntp2344
Rp2345
(dp2346
g42
g2288
sg43
I6
sg44
I01
sg45
g2234
sg68
F1.4657352392676195
sbsI7
g0
(g38
g2
Ntp2347
Rp2348
(dp2349
g42
g2296
sg43
I7
sg44
I01
sg45
g2234
sg68
F0.25644739852760234
sbsI8
g0
(g38
g2
Ntp2350
Rp2351
(dp2352
g42
g2304
sg43
I8
sg44
I01
sg45
g2234
sg68
F-1.0853396668474868
sbsI9
g0
(g38
g2
Ntp2353
Rp2354
(dp2355
g42
g2312
sg43
I9
sg44
I01
sg45
g2234
sg68
F1.5438175659633608
sbsI10
g0
(g38
g2
Ntp2356
Rp2357
(dp2358
g42
g2320
sg43
I10
sg44
I01
sg45
g2234
sg68
F-1.1904020456666815
sbsI11
g0
(g38
g2
Ntp2359
Rp2360
(dp2361
g42
g2227
sg68
F-0.4337762620963366
sg44
I01
sg45
g2273
sg43
I11
sbsI12
g0
(g38
g2
Ntp2362
Rp2363
(dp2364
g42
g2273
sg68
F-0.6726416214798605
sg44
I01
sg45
g2234
sg43
I12
sbsI13
g0
(g38
g2
Ntp2365
Rp2366
(dp2367
g42
g2266
sg68
F1.7345323792467977
sg44
I01
sg45
g2273
sg43
I13
sbssg140
I4
sg141
I10
sg142
I50
sg143
F-777.0
sg144
I12
sg145
(lp2368
g2227
ag2242
ag2250
ag2258
ag2266
ag2288
ag2296
ag2304
ag2312
ag2320
asg147
(lp2369
g2273
asbsI5
g0
(g24
g2
Ntp2370
Rp2371
(dp2372
g28
Nsg29
I1
sg30
(dp2373
I0
g0
(g32
g2
Ntp2374
Rp2375
(dp2376
g36
(dp2377
I1
g0
(g38
g2
Ntp2378
Rp2379
(dp2380
g43
I1
sg45
g0
(g32
g2
Ntp2381
Rp2382
(dp2383
g36
(dp2384
sg50
I00
sg51
I11
sg52
g53
sg54
I0
sg55
F0.0
sg56
(dp2385
I1
g2379
sI2
g0
(g38
g2
Ntp2386
Rp2387
(dp2388
g43
I2
sg45
g2382
sg44
I01
sg42
g0
(g32
g2
Ntp2389
Rp2390
(dp2391
g36
(dp2392
I2
g2387
ssg50
I00
sg51
I0
sg52
g65
sg54
I0
sg55
F0.0
sg56
(dp2393
sg67
I1
sbsg68
F0.8189245916548261
sbsI3
g0
(g38
g2
Ntp2394
Rp2395
(dp2396
g43
I3
sg45
g2382
sg44
I01
sg42
g0
(g32
g2
Ntp2397
Rp2398
(dp2399
g36
(dp2400
I3
g2395
ssg50
I00
sg51
I0
sg52
g65
sg54
I0
sg55
F0.0
sg56
(dp2401
sg67
I2
sbsg68
F-1.9156995590522372
sbsI4
g0
(g38
g2
Ntp2402
Rp2403
(dp2404
g43
I4
sg45
g2382
sg44
I01
sg42
g0
(g32
g2
Ntp2405
Rp2406
(dp2407
g36
(dp2408
I4
g2403
ssg50
I00
sg51
I0
sg52
g65
sg54
I0
sg55
F0.0
sg56
(dp2409
sg67
I3
sbsg68
F-0.38503472533099214
sbsI5
g0
(g38
g2
Ntp2410
Rp2411
(dp2412
g43
I5
sg45
g2382
sg44
I01
sg42
g0
(g32
g2
Ntp2413
Rp2414
(dp2415
g36
(dp2416
I5
g2411
sI13
g0
(g38
g2
Ntp2417
Rp2418
(dp2419
g43
I13
sg45
g0
(g32
g2
Ntp2420
Rp2421
(dp2422
g36
(dp2423
I12
g0
(g38
g2
Ntp2424
Rp2425
(dp2426
g43
I12
sg45
g2382
sg44
I01
sg42
g2421
sg68
F0.11157586753298993
sbssg50
I00
sg51
I2
sg52
g1695
sg54
I0
sg55
F0.0
sg56
(dp2427
I11
g0
(g38
g2
Ntp2428
Rp2429
(dp2430
g43
I11
sg45
g2421
sg44
I01
sg42
g2375
sg68
F0.9426146127287424
sbsI13
g2418
sI14
g0
(g38
g2
Ntp2431
Rp2432
(dp2433
g43
I14
sg45
g2421
sg44
I01
sg42
g0
(g32
g2
Ntp2434
Rp2435
(dp2436
g36
(dp2437
I14
g2432
sI6
g0
(g38
g2
Ntp2438
Rp2439
(dp2440
g43
I6
sg45
g2382
sg44
I01
sg42
g2435
sg68
F0.7278776146178227
sbssg50
I00
sg51
I0
sg52
g65
sg54
I0
sg55
F0.0
sg56
(dp2441
sg67
I5
sbsg68
F-0.7098235915660918
sbssg67
I11
sbsg44
I01
sg42
g2414
sg68
F-0.8299513351106541
sbssg50
I00
sg51
I0
sg52
g65
sg54
I0
sg55
F0.0
sg56
(dp2442
sg67
I4
sbsg68
F1.4899848877200375
sbsI6
g2439
sI7
g0
(g38
g2
Ntp2443
Rp2444
(dp2445
g43
I7
sg45
g2382
sg44
I01
sg42
g0
(g32
g2
Ntp2446
Rp2447
(dp2448
g36
(dp2449
I7
g2444
ssg50
I00
sg51
I0
sg52
g65
sg54
I0
sg55
F0.0
sg56
(dp2450
sg67
I6
sbsg68
F0.1515207409671947
sbsI8
g0
(g38
g2
Ntp2451
Rp2452
(dp2453
g43
I8
sg45
g2382
sg44
I01
sg42
g0
(g32
g2
Ntp2454
Rp2455
(dp2456
g36
(dp2457
I8
g2452
ssg50
I00
sg51
I0
sg52
g65
sg54
I0
sg55
F0.0
sg56
(dp2458
sg67
I7
sbsg68
F0.26802702905943415
sbsI9
g0
(g38
g2
Ntp2459
Rp2460
(dp2461
g43
I9
sg45
g2382
sg44
I01
sg42
g0
(g32
g2
Ntp2462
Rp2463
(dp2464
g36
(dp2465
I9
g2460
ssg50
I00
sg51
I0
sg52
g65
sg54
I0
sg55
F0.0
sg56
(dp2466
sg67
I8
sbsg68
F1.4539980868841504
sbsI10
g0
(g38
g2
Ntp2467
Rp2468
(dp2469
g43
I10
sg45
g2382
sg44
I01
sg42
g0
(g32
g2
Ntp2470
Rp2471
(dp2472
g36
(dp2473
I10
g2468
ssg50
I00
sg51
I0
sg52
g65
sg54
I0
sg55
F0.0
sg56
(dp2474
sg67
I9
sbsg68
F1.3716663863183332
sbsI12
g2425
ssg67
I10
sbsg44
I00
sg42
g2375
sg68
F-2.058992817378968
sbsI11
g2429
ssg50
I00
sg51
I0
sg52
g65
sg54
I0
sg55
F0.0
sg56
(dp2475
sg67
I0
sbsI1
g2390
sI2
g2398
sI3
g2406
sI4
g2414
sI5
g2435
sI6
g2447
sI7
g2455
sI8
g2463
sI9
g2471
sI10
g2382
sI11
g2421
ssg134
(lp2476
g2382
asg9
(iinnovation
Innovation
p2477
(dp2478
g12
I15
sbsg138
(dp2479
I1
g0
(g38
g2
Ntp2480
Rp2481
(dp2482
g42
g2375
sg43
I1
sg44
I00
sg45
g2382
sg68
F0.33781832267465606
sbsI2
g0
(g38
g2
Ntp2483
Rp2484
(dp2485
g42
g2390
sg43
I2
sg44
I01
sg45
g2382
sg68
F1.0640293463229846
sbsI3
g0
(g38
g2
Ntp2486
Rp2487
(dp2488
g42
g2398
sg43
I3
sg44
I01
sg45
g2382
sg68
F-0.5060036354831747
sbsI4
g0
(g38
g2
Ntp2489
Rp2490
(dp2491
g42
g2406
sg43
I4
sg44
I01
sg45
g2382
sg68
F-0.4034950383069942
sbsI5
g0
(g38
g2
Ntp2492
Rp2493
(dp2494
g42
g2414
sg43
I5
sg44
I01
sg45
g2382
sg68
F1.041770086980295
sbsI6
g0
(g38
g2
Ntp2495
Rp2496
(dp2497
g42
g2435
sg43
I6
sg44
I01
sg45
g2382
sg68
F0.6249126138374457
sbsI7
g0
(g38
g2
Ntp2498
Rp2499
(dp2500
g42
g2447
sg43
I7
sg44
I01
sg45
g2382
sg68
F0.022183476071561098
sbsI8
g0
(g38
g2
Ntp2501
Rp2502
(dp2503
g42
g2455
sg43
I8
sg44
I01
sg45
g2382
sg68
F0.3346828795640243
sbsI9
g0
(g38
g2
Ntp2504
Rp2505
(dp2506
g42
g2463
sg43
I9
sg44
I01
sg45
g2382
sg68
F1.5694618751520122
sbsI10
g0
(g38
g2
Ntp2507
Rp2508
(dp2509
g42
g2471
sg43
I10
sg44
I01
sg45
g2382
sg68
F0.20508376296175385
sbsI11
g0
(g38
g2
Ntp2510
Rp2511
(dp2512
g42
g2375
sg68
F-0.02666346294436321
sg44
I01
sg45
g2421
sg43
I11
sbsI12
g0
(g38
g2
Ntp2513
Rp2514
(dp2515
g42
g2421
sg68
F0.7157450587479588
sg44
I01
sg45
g2382
sg43
I12
sbsI13
g0
(g38
g2
Ntp2516
Rp2517
(dp2518
g42
g2414
sg68
F1.6274041249599582
sg44
I01
sg45
g2421
sg43
I13
sbsI14
g2432
ssg140
I4
sg141
I10
sg142
I50
sg143
F-708.0
sg144
I12
sg145
(lp2519
g2375
ag2390
ag2398
ag2406
ag2414
ag2435
ag2447
ag2455
ag2463
ag2471
asg147
(lp2520
g2421
asbsI6
g2223
sI7
g0
(g24
g2
Ntp2521
Rp2522
(dp2523
g28
Nsg29
I1
sg30
(dp2524
I0
g0
(g32
g2
Ntp2525
Rp2526
(dp2527
g36
(dp2528
I1
g0
(g38
g2
Ntp2529
Rp2530
(dp2531
g43
I1
sg45
g0
(g32
g2
Ntp2532
Rp2533
(dp2534
g36
(dp2535
sg50
I00
sg51
I11
sg52
g53
sg54
I0
sg55
F0.0
sg56
(dp2536
I1
g2530
sI2
g0
(g38
g2
Ntp2537
Rp2538
(dp2539
g42
g0
(g32
g2
Ntp2540
Rp2541
(dp2542
g36
(dp2543
I2
g2538
ssg50
I00
sg51
I0
sg52
g65
sg54
I0
sg55
F0.0
sg56
(dp2544
sg67
I1
sbsg68
F-0.36071458483292873
sg44
I01
sg45
g2533
sg43
I2
sbsI3
g0
(g38
g2
Ntp2545
Rp2546
(dp2547
g43
I3
sg45
g2533
sg44
I01
sg42
g0
(g32
g2
Ntp2548
Rp2549
(dp2550
g36
(dp2551
I3
g2546
ssg50
I00
sg51
I0
sg52
g65
sg54
I0
sg55
F0.0
sg56
(dp2552
sg67
I2
sbsg68
F-0.37082145303315134
sbsI4
g0
(g38
g2
Ntp2553
Rp2554
(dp2555
g43
I4
sg45
g2533
sg44
I01
sg42
g0
(g32
g2
Ntp2556
Rp2557
(dp2558
g36
(dp2559
I4
g2554
ssg50
I00
sg51
I0
sg52
g65
sg54
I0
sg55
F0.0
sg56
(dp2560
sg67
I3
sbsg68
F-0.43079218591153057
sbsI5
g0
(g38
g2
Ntp2561
Rp2562
(dp2563
g43
I5
sg45
g2533
sg44
I01
sg42
g0
(g32
g2
Ntp2564
Rp2565
(dp2566
g36
(dp2567
I5
g2562
sI13
g0
(g38
g2
Ntp2568
Rp2569
(dp2570
g43
I13
sg45
g0
(g32
g2
Ntp2571
Rp2572
(dp2573
g36
(dp2574
I12
g0
(g38
g2
Ntp2575
Rp2576
(dp2577
g43
I12
sg45
g2533
sg44
I01
sg42
g2572
sg68
F-0.31107753761125356
sbssg50
I00
sg51
I2
sg52
g1695
sg54
I0
sg55
F0.0
sg56
(dp2578
I11
g0
(g38
g2
Ntp2579
Rp2580
(dp2581
g43
I11
sg45
g2572
sg44
I01
sg42
g2526
sg68
F-1.7298217158742721
sbsI13
g2569
ssg67
I11
sbsg44
I01
sg42
g2565
sg68
F-0.7231980530667073
sbssg50
I00
sg51
I0
sg52
g65
sg54
I0
sg55
F0.0
sg56
(dp2582
sg67
I4
sbsg68
F-1.1546873935359443
sbsI6
g0
(g38
g2
Ntp2583
Rp2584
(dp2585
g43
I6
sg45
g2533
sg44
I01
sg42
g0
(g32
g2
Ntp2586
Rp2587
(dp2588
g36
(dp2589
I6
g2584
ssg50
I00
sg51
I0
sg52
g65
sg54
I0
sg55
F0.0
sg56
(dp2590
sg67
I5
sbsg68
F1.3251585992382955
sbsI7
g0
(g38
g2
Ntp2591
Rp2592
(dp2593
g43
I7
sg45
g2533
sg44
I01
sg42
g0
(g32
g2
Ntp2594
Rp2595
(dp2596
g36
(dp2597
I7
g2592
ssg50
I00
sg51
I0
sg52
g65
sg54
I0
sg55
F0.0
sg56
(dp2598
sg67
I6
sbsg68
F1.79261859221274
sbsI8
g0
(g38
g2
Ntp2599
Rp2600
(dp2601
g43
I8
sg45
g2533
sg44
I01
sg42
g0
(g32
g2
Ntp2602
Rp2603
(dp2604
g36
(dp2605
I8
g2600
ssg50
I00
sg51
I0
sg52
g65
sg54
I0
sg55
F0.0
sg56
(dp2606
sg67
I7
sbsg68
F0.9410774242320754
sbsI9
g0
(g38
g2
Ntp2607
Rp2608
(dp2609
g43
I9
sg45
g2533
sg44
I01
sg42
g0
(g32
g2
Ntp2610
Rp2611
(dp2612
g36
(dp2613
I9
g2608
ssg50
I00
sg51
I0
sg52
g65
sg54
I0
sg55
F0.0
sg56
(dp2614
sg67
I8
sbsg68
F-1.2255074357106308
sbsI10
g0
(g38
g2
Ntp2615
Rp2616
(dp2617
g42
g0
(g32
g2
Ntp2618
Rp2619
(dp2620
g36
(dp2621
I10
g2616
ssg50
I00
sg51
I0
sg52
g65
sg54
I0
sg55
F0.0
sg56
(dp2622
sg67
I9
sbsg68
F1.261686373561013
sg44
I01
sg45
g2533
sg43
I10
sbsI12
g2576
ssg67
I10
sbsg44
I00
sg42
g2526
sg68
F-0.15849341913491843
sbsI11
g2580
ssg50
I00
sg51
I0
sg52
g65
sg54
I0
sg55
F0.0
sg56
(dp2623
sg67
I0
sbsI1
g2541
sI2
g2549
sI3
g2557
sI4
g2565
sI5
g2587
sI6
g2595
sI7
g2603
sI8
g2611
sI9
g2619
sI10
g2533
sI11
g2572
ssg134
(lp2624
g2533
asg9
(iinnovation
Innovation
p2625
(dp2626
g12
I14
sbsg138
(dp2627
I1
g0
(g38
g2
Ntp2628
Rp2629
(dp2630
g42
g2526
sg43
I1
sg44
I00
sg45
g2533
sg68
F-0.15849341913491843
sbsI2
g0
(g38
g2
Ntp2631
Rp2632
(dp2633
g42
g2541
sg43
I2
sg44
I01
sg45
g2533
sg68
F0.5645180459127557
sbsI3
g0
(g38
g2
Ntp2634
Rp2635
(dp2636
g42
g2549
sg43
I3
sg44
I01
sg45
g2533
sg68
F-0.29527275879656756
sbsI4
g0
(g38
g2
Ntp2637
Rp2638
(dp2639
g42
g2557
sg43
I4
sg44
I01
sg45
g2533
sg68
F-0.4152225973536312
sbsI5
g0
(g38
g2
Ntp2640
Rp2641
(dp2642
g42
g2565
sg43
I5
sg44
I01
sg45
g2533
sg68
F-1.202715285445484
sbsI6
g0
(g38
g2
Ntp2643
Rp2644
(dp2645
g42
g2587
sg43
I6
sg44
I01
sg45
g2533
sg68
F1.1868831499810037
sbsI7
g0
(g38
g2
Ntp2646
Rp2647
(dp2648
g42
g2595
sg43
I7
sg44
I01
sg45
g2533
sg68
F1.1877169908910918
sbsI8
g0
(g38
g2
Ntp2649
Rp2650
(dp2651
g42
g2603
sg43
I8
sg44
I01
sg45
g2533
sg68
F0.9737907515795662
sbsI9
g0
(g38
g2
Ntp2652
Rp2653
(dp2654
g42
g2611
sg43
I9
sg44
I01
sg45
g2533
sg68
F-1.3284128285727914
sbsI10
g0
(g38
g2
Ntp2655
Rp2656
(dp2657
g42
g2619
sg43
I10
sg44
I01
sg45
g2533
sg68
F-0.965717961635931
sbsI11
g0
(g38
g2
Ntp2658
Rp2659
(dp2660
g42
g2526
sg68
F-1.8760229722715385
sg44
I01
sg45
g2572
sg43
I11
sbsI12
g0
(g38
g2
Ntp2661
Rp2662
(dp2663
g42
g2572
sg68
F-0.3088966494153414
sg44
I01
sg45
g2533
sg43
I12
sbsI13
g0
(g38
g2
Ntp2664
Rp2665
(dp2666
g42
g2565
sg68
F1.7533605919344297
sg44
I01
sg45
g2572
sg43
I13
sbssg140
I4
sg141
I10
sg142
I50
sg143
F-757.0
sg144
I12
sg145
(lp2667
g2526
ag2541
ag2549
ag2557
ag2565
ag2587
ag2595
ag2603
ag2611
ag2619
asg147
(lp2668
g2572
asbsI8
g0
(g24
g2
Ntp2669
Rp2670
(dp2671
g28
Nsg29
I1
sg30
(dp2672
I0
g0
(g32
g2
Ntp2673
Rp2674
(dp2675
g36
(dp2676
I1
g0
(g38
g2
Ntp2677
Rp2678
(dp2679
g42
g2674
sg68
F-1.9804499936761442
sg44
I00
sg45
g0
(g32
g2
Ntp2680
Rp2681
(dp2682
g36
(dp2683
sg50
I00
sg51
I11
sg52
g53
sg54
I0
sg55
F0.0
sg56
(dp2684
I1
g2678
sI2
g0
(g38
g2
Ntp2685
Rp2686
(dp2687
g43
I2
sg45
g2681
sg44
I01
sg42
g0
(g32
g2
Ntp2688
Rp2689
(dp2690
g36
(dp2691
I2
g2686
ssg50
I00
sg51
I0
sg52
g65
sg54
I0
sg55
F0.0
sg56
(dp2692
sg67
I1
sbsg68
F-0.36071458483292873
sbsI3
g0
(g38
g2
Ntp2693
Rp2694
(dp2695
g42
g0
(g32
g2
Ntp2696
Rp2697
(dp2698
g36
(dp2699
I3
g2694
ssg50
I00
sg51
I0
sg52
g65
sg54
I0
sg55
F0.0
sg56
(dp2700
sg67
I2
sbsg68
F-2.0349772331238896
sg44
I01
sg45
g2681
sg43
I3
sbsI4
g0
(g38
g2
Ntp2701
Rp2702
(dp2703
g43
I4
sg45
g2681
sg44
I01
sg42
g0
(g32
g2
Ntp2704
Rp2705
(dp2706
g36
(dp2707
I4
g2702
ssg50
I00
sg51
I0
sg52
g65
sg54
I0
sg55
F0.0
sg56
(dp2708
sg67
I3
sbsg68
F-0.1921218119994388
sbsI5
g0
(g38
g2
Ntp2709
Rp2710
(dp2711
g42
g0
(g32
g2
Ntp2712
Rp2713
(dp2714
g36
(dp2715
I5
g2710
sI13
g0
(g38
g2
Ntp2716
Rp2717
(dp2718
g43
I13
sg45
g0
(g32
g2
Ntp2719
Rp2720
(dp2721
g36
(dp2722
I12
g0
(g38
g2
Ntp2723
Rp2724
(dp2725
g43
I12
sg45
g2681
sg44
I01
sg42
g2720
sg68
F-0.7675798162546338
sbssg50
I00
sg51
I2
sg52
g1695
sg54
I0
sg55
F0.0
sg56
(dp2726
I11
g0
(g38
g2
Ntp2727
Rp2728
(dp2729
g43
I11
sg45
g2720
sg44
I01
sg42
g2674
sg68
F-1.3421117022410385
sbsI13
g2717
ssg67
I11
sbsg44
I01
sg42
g2713
sg68
F-0.7464932267859539
sbssg50
I00
sg51
I0
sg52
g65
sg54
I0
sg55
F0.0
sg56
(dp2730
sg67
I4
sbsg68
F1.6350030486853764
sg44
I01
sg45
g2681
sg43
I5
sbsI6
g0
(g38
g2
Ntp2731
Rp2732
(dp2733
g43
I6
sg45
g2681
sg44
I01
sg42
g0
(g32
g2
Ntp2734
Rp2735
(dp2736
g36
(dp2737
I6
g2732
ssg50
I00
sg51
I0
sg52
g65
sg54
I0
sg55
F0.0
sg56
(dp2738
sg67
I5
sbsg68
F1.4556620632327377
sbsI7
g0
(g38
g2
Ntp2739
Rp2740
(dp2741
g43
I7
sg45
g2681
sg44
I01
sg42
g0
(g32
g2
Ntp2742
Rp2743
(dp2744
g36
(dp2745
I7
g2740
ssg50
I00
sg51
I0
sg52
g65
sg54
I0
sg55
F0.0
sg56
(dp2746
sg67
I6
sbsg68
F0.2944216042518475
sbsI8
g0
(g38
g2
Ntp2747
Rp2748
(dp2749
g43
I8
sg45
g2681
sg44
I01
sg42
g0
(g32
g2
Ntp2750
Rp2751
(dp2752
g36
(dp2753
I8
g2748
ssg50
I00
sg51
I0
sg52
g65
sg54
I0
sg55
F0.0
sg56
(dp2754
sg67
I7
sbsg68
F-1.0749408025919354
sbsI9
g0
(g38
g2
Ntp2755
Rp2756
(dp2757
g43
I9
sg45
g2681
sg44
I01
sg42
g0
(g32
g2
Ntp2758
Rp2759
(dp2760
g36
(dp2761
I9
g2756
ssg50
I00
sg51
I0
sg52
g65
sg54
I0
sg55
F0.0
sg56
(dp2762
sg67
I8
sbsg68
F1.8778534719435014
sbsI10
g0
(g38
g2
Ntp2763
Rp2764
(dp2765
g43
I10
sg45
g2681
sg44
I01
sg42
g0
(g32
g2
Ntp2766
Rp2767
(dp2768
g36
(dp2769
I10
g2764
ssg50
I00
sg51
I0
sg52
g65
sg54
I0
sg55
F0.0
sg56
(dp2770
sg67
I9
sbsg68
F1.220021669099182
sbsI12
g2724
ssg67
I10
sbsg43
I1
sbsI11
g2728
ssg50
I00
sg51
I0
sg52
g65
sg54
I0
sg55
F0.0
sg56
(dp2771
sg67
I0
sbsI1
g2689
sI2
g2697
sI3
g2705
sI4
g2713
sI5
g2735
sI6
g2743
sI7
g2751
sI8
g2759
sI9
g2767
sI10
g2681
sI11
g2720
ssg134
(lp2772
g2681
asg9
(iinnovation
Innovation
p2773
(dp2774
g12
I14
sbsg138
(dp2775
I1
g0
(g38
g2
Ntp2776
Rp2777
(dp2778
g42
g2674
sg68
F-2.031815276733505
sg44
I00
sg45
g2681
sg43
I1
sbsI2
g0
(g38
g2
Ntp2779
Rp2780
(dp2781
g42
g2689
sg68
F1.397877682000201
sg44
I01
sg45
g2681
sg43
I2
sbsI3
g0
(g38
g2
Ntp2782
Rp2783
(dp2784
g42
g2697
sg68
F-2.0255107466634388
sg44
I01
sg45
g2681
sg43
I3
sbsI4
g0
(g38
g2
Ntp2785
Rp2786
(dp2787
g42
g2705
sg68
F-0.1921218119994388
sg44
I01
sg45
g2681
sg43
I4
sbsI5
g0
(g38
g2
Ntp2788
Rp2789
(dp2790
g42
g2713
sg68
F1.672779591811614
sg44
I01
sg45
g2681
sg43
I5
sbsI6
g0
(g38
g2
Ntp2791
Rp2792
(dp2793
g42
g2735
sg68
F1.4085856667825924
sg44
I01
sg45
g2681
sg43
I6
sbsI7
g0
(g38
g2
Ntp2794
Rp2795
(dp2796
g42
g2743
sg68
F0.30287914341942934
sg44
I01
sg45
g2681
sg43
I7
sbsI8
g0
(g38
g2
Ntp2797
Rp2798
(dp2799
g42
g2751
sg68
F-0.9781677259210612
sg44
I01
sg45
g2681
sg43
I8
sbsI9
g0
(g38
g2
Ntp2800
Rp2801
(dp2802
g42
g2759
sg68
F1.8409438935834304
sg44
I01
sg45
g2681
sg43
I9
sbsI10
g0
(g38
g2
Ntp2803
Rp2804
(dp2805
g42
g2767
sg68
F1.3022586752472152
sg44
I01
sg45
g2681
sg43
I10
sbsI11
g0
(g38
g2
Ntp2806
Rp2807
(dp2808
g43
I11
sg45
g2720
sg44
I01
sg42
g2674
sg68
F-1.3664792998873159
sbsI12
g2724
sI13
g0
(g38
g2
Ntp2809
Rp2810
(dp2811
g43
I13
sg45
g2720
sg44
I01
sg42
g2713
sg68
F-0.7129270223221504
sbssg140
I4
sg141
I10
sg142
I50
sg143
F-89.44000000000005
sg144
I12
sg145
(lp2812
g2674
ag2689
ag2697
ag2705
ag2713
ag2735
ag2743
ag2751
ag2759
ag2767
asg147
(lp2813
g2720
asbsI9
g0
(g24
g2
Ntp2814
Rp2815
(dp2816
g28
Nsg29
I1
sg30
(dp2817
I0
g0
(g32
g2
Ntp2818
Rp2819
(dp2820
g36
(dp2821
I1
g0
(g38
g2
Ntp2822
Rp2823
(dp2824
g43
I1
sg45
g0
(g32
g2
Ntp2825
Rp2826
(dp2827
g36
(dp2828
sg50
I00
sg51
I11
sg52
g53
sg54
I0
sg55
F0.0
sg56
(dp2829
I1
g2823
sI2
g0
(g38
g2
Ntp2830
Rp2831
(dp2832
g43
I2
sg45
g2826
sg44
I01
sg42
g0
(g32
g2
Ntp2833
Rp2834
(dp2835
g36
(dp2836
I2
g2831
ssg50
I00
sg51
I0
sg52
g65
sg54
I0
sg55
F0.0
sg56
(dp2837
sg67
I1
sbsg68
F-0.7790818136573276
sbsI3
g0
(g38
g2
Ntp2838
Rp2839
(dp2840
g43
I3
sg45
g2826
sg44
I01
sg42
g0
(g32
g2
Ntp2841
Rp2842
(dp2843
g36
(dp2844
I3
g2839
ssg50
I00
sg51
I0
sg52
g65
sg54
I0
sg55
F0.0
sg56
(dp2845
sg67
I2
sbsg68
F-2.0716736791118606
sbsI4
g0
(g38
g2
Ntp2846
Rp2847
(dp2848
g42
g0
(g32
g2
Ntp2849
Rp2850
(dp2851
g36
(dp2852
I4
g2847
ssg50
I00
sg51
I0
sg52
g65
sg54
I0
sg55
F0.0
sg56
(dp2853
sg67
I3
sbsg43
I4
sg44
I01
sg45
g2826
sg68
F-0.13787420449113297
sbsI5
g0
(g38
g2
Ntp2854
Rp2855
(dp2856
g43
I5
sg45
g2826
sg44
I01
sg42
g0
(g32
g2
Ntp2857
Rp2858
(dp2859
g36
(dp2860
I5
g2855
sI13
g0
(g38
g2
Ntp2861
Rp2862
(dp2863
g43
I13
sg45
g0
(g32
g2
Ntp2864
Rp2865
(dp2866
g36
(dp2867
I12
g0
(g38
g2
Ntp2868
Rp2869
(dp2870
g42
g2865
sg43
I12
sg44
I01
sg45
g2826
sg68
F-0.787897396458472
sbssg50
I00
sg51
I2
sg52
g1695
sg54
I0
sg55
F0.0
sg56
(dp2871
I11
g0
(g38
g2
Ntp2872
Rp2873
(dp2874
g43
I11
sg45
g2865
sg44
I01
sg42
g2819
sg68
F-1.2612087254558293
sbsI13
g2862
ssg67
I11
sbsg44
I01
sg42
g2858
sg68
F-1.6847653355295231
sbssg50
I00
sg51
I0
sg52
g65
sg54
I0
sg55
F0.0
sg56
(dp2875
sg67
I4
sbsg68
F-0.2279883136965628
sbsI6
g0
(g38
g2
Ntp2876
Rp2877
(dp2878
g42
g0
(g32
g2
Ntp2879
Rp2880
(dp2881
g36
(dp2882
I6
g2877
ssg50
I00
sg51
I0
sg52
g65
sg54
I0
sg55
F0.0
sg56
(dp2883
sg67
I5
sbsg43
I6
sg44
I01
sg45
g2826
sg68
F-0.7049053397610683
sbsI7
g0
(g38
g2
Ntp2884
Rp2885
(dp2886
g43
I7
sg45
g2826
sg44
I01
sg42
g0
(g32
g2
Ntp2887
Rp2888
(dp2889
g36
(dp2890
I7
g2885
ssg50
I00
sg51
I0
sg52
g65
sg54
I0
sg55
F0.0
sg56
(dp2891
sg67
I6
sbsg68
F-1.652964455939916
sbsI8
g0
(g38
g2
Ntp2892
Rp2893
(dp2894
g43
I8
sg45
g2826
sg44
I01
sg42
g0
(g32
g2
Ntp2895
Rp2896
(dp2897
g36
(dp2898
I8
g2893
ssg50
I00
sg51
I0
sg52
g65
sg54
I0
sg55
F0.0
sg56
(dp2899
sg67
I7
sbsg68
F-1.0031461640717616
sbsI9
g0
(g38
g2
Ntp2900
Rp2901
(dp2902
g43
I9
sg45
g2826
sg44
I01
sg42
g0
(g32
g2
Ntp2903
Rp2904
(dp2905
g36
(dp2906
I9
g2901
ssg50
I00
sg51
I0
sg52
g65
sg54
I0
sg55
F0.0
sg56
(dp2907
sg67
I8
sbsg68
F1.5533780952837668
sbsI10
g0
(g38
g2
Ntp2908
Rp2909
(dp2910
g43
I10
sg45
g2826
sg44
I01
sg42
g0
(g32
g2
Ntp2911
Rp2912
(dp2913
g36
(dp2914
I10
g2909
ssg50
I00
sg51
I0
sg52
g65
sg54
I0
sg55
F0.0
sg56
(dp2915
sg67
I9
sbsg68
F1.3189319603475713
sbsI12
g2869
ssg67
I10
sbsg44
I00
sg42
g2819
sg68
F0.06573864334162328
sbsI11
g2873
ssg50
I00
sg51
I0
sg52
g65
sg54
I0
sg55
F0.0
sg56
(dp2916
sg67
I0
sbsI1
g2834
sI2
g2842
sI3
g2850
sI4
g2858
sI5
g2880
sI6
g2888
sI7
g2896
sI8
g2904
sI9
g2912
sI10
g2826
sI11
g2865
ssg134
(lp2917
g2826
asg9
(iinnovation
Innovation
p2918
(dp2919
g12
I14
sbsg138
(dp2920
I1
g0
(g38
g2
Ntp2921
Rp2922
(dp2923
g42
g2819
sg43
I1
sg44
I00
sg45
g2826
sg68
F-1.981826833010639
sbsI2
g0
(g38
g2
Ntp2924
Rp2925
(dp2926
g42
g2834
sg43
I2
sg44
I01
sg45
g2826
sg68
F-0.5356359710633171
sbsI3
g0
(g38
g2
Ntp2927
Rp2928
(dp2929
g42
g2842
sg43
I3
sg44
I01
sg45
g2826
sg68
F-2.034244994572548
sbsI4
g0
(g38
g2
Ntp2930
Rp2931
(dp2932
g42
g2850
sg43
I4
sg44
I01
sg45
g2826
sg68
F-1.2187000161247445
sbsI5
g0
(g38
g2
Ntp2933
Rp2934
(dp2935
g42
g2858
sg43
I5
sg44
I01
sg45
g2826
sg68
F-0.10844012909849673
sbsI6
g0
(g38
g2
Ntp2936
Rp2937
(dp2938
g42
g2880
sg43
I6
sg44
I01
sg45
g2826
sg68
F-1.7602579334063604
sbsI7
g0
(g38
g2
Ntp2939
Rp2940
(dp2941
g42
g2888
sg43
I7
sg44
I01
sg45
g2826
sg68
F-1.3996298285788167
sbsI8
g0
(g38
g2
Ntp2942
Rp2943
(dp2944
g42
g2896
sg43
I8
sg44
I01
sg45
g2826
sg68
F-0.8523592527009076
sbsI9
g0
(g38
g2
Ntp2945
Rp2946
(dp2947
g42
g2904
sg43
I9
sg44
I01
sg45
g2826
sg68
F-0.5960667198107434
sbsI10
g0
(g38
g2
Ntp2948
Rp2949
(dp2950
g42
g2912
sg43
I10
sg44
I01
sg45
g2826
sg68
F1.3900985933186243
sbsI11
g0
(g38
g2
Ntp2951
Rp2952
(dp2953
g42
g2819
sg68
F-1.4088163368266335
sg44
I01
sg45
g2865
sg43
I11
sbsI12
g0
(g38
g2
Ntp2954
Rp2955
(dp2956
g42
g2865
sg68
F-0.6348708077740699
sg44
I01
sg45
g2826
sg43
I12
sbsI13
g0
(g38
g2
Ntp2957
Rp2958
(dp2959
g42
g2858
sg68
F-1.637614061939003
sg44
I01
sg45
g2865
sg43
I13
sbssg140
I4
sg141
I10
sg142
I50
sg143
F-81.44000000000005
sg144
I12
sg145
(lp2960
g2819
ag2834
ag2842
ag2850
ag2858
ag2880
ag2888
ag2896
ag2904
ag2912
asg147
(lp2961
g2865
asbsI10
g0
(g24
g2
Ntp2962
Rp2963
(dp2964
g28
Nsg29
I1
sg30
(dp2965
I0
g0
(g32
g2
Ntp2966
Rp2967
(dp2968
g36
(dp2969
I1
g0
(g38
g2
Ntp2970
Rp2971
(dp2972
g43
I1
sg45
g0
(g32
g2
Ntp2973
Rp2974
(dp2975
g36
(dp2976
sg50
I00
sg51
I11
sg52
g53
sg54
I0
sg55
F0.0
sg56
(dp2977
I1
g2971
sI2
g0
(g38
g2
Ntp2978
Rp2979
(dp2980
g42
g0
(g32
g2
Ntp2981
Rp2982
(dp2983
g36
(dp2984
I2
g2979
ssg50
I00
sg51
I0
sg52
g65
sg54
I0
sg55
F0.0
sg56
(dp2985
sg67
I1
sbsg68
F-0.36071458483292873
sg44
I01
sg45
g2974
sg43
I2
sbsI3
g0
(g38
g2
Ntp2986
Rp2987
(dp2988
g43
I3
sg45
g2974
sg44
I01
sg42
g0
(g32
g2
Ntp2989
Rp2990
(dp2991
g36
(dp2992
I3
g2987
ssg50
I00
sg51
I0
sg52
g65
sg54
I0
sg55
F0.0
sg56
(dp2993
sg67
I2
sbsg68
F0.04936997004908458
sbsI4
g0
(g38
g2
Ntp2994
Rp2995
(dp2996
g43
I4
sg45
g2974
sg44
I01
sg42
g0
(g32
g2
Ntp2997
Rp2998
(dp2999
g36
(dp3000
I4
g2995
ssg50
I00
sg51
I0
sg52
g65
sg54
I0
sg55
F0.0
sg56
(dp3001
sg67
I3
sbsg68
F0.10101471781407892
sbsI5
g0
(g38
g2
Ntp3002
Rp3003
(dp3004
g43
I5
sg45
g2974
sg44
I01
sg42
g0
(g32
g2
Ntp3005
Rp3006
(dp3007
g36
(dp3008
I5
g3003
sI13
g0
(g38
g2
Ntp3009
Rp3010
(dp3011
g43
I13
sg45
g0
(g32
g2
Ntp3012
Rp3013
(dp3014
g36
(dp3015
I12
g0
(g38
g2
Ntp3016
Rp3017
(dp3018
g43
I12
sg45
g2974
sg44
I01
sg42
g3013
sg68
F1.7490940130721229
sbssg50
I00
sg51
I2
sg52
g1695
sg54
I0
sg55
F0.0
sg56
(dp3019
I11
g0
(g38
g2
Ntp3020
Rp3021
(dp3022
g43
I11
sg45
g3013
sg44
I01
sg42
g2967
sg68
F-0.8586526304098595
sbsI13
g3010
ssg67
I11
sbsg44
I01
sg42
g3006
sg68
F-0.7000380612892502
sbssg50
I00
sg51
I0
sg52
g65
sg54
I0
sg55
F0.0
sg56
(dp3023
sg67
I4
sbsg68
F-0.7038819692630031
sbsI6
g0
(g38
g2
Ntp3024
Rp3025
(dp3026
g43
I6
sg45
g2974
sg44
I01
sg42
g0
(g32
g2
Ntp3027
Rp3028
(dp3029
g36
(dp3030
I6
g3025
ssg50
I00
sg51
I0
sg52
g65
sg54
I0
sg55
F0.0
sg56
(dp3031
sg67
I5
sbsg68
F-1.4891759770288169
sbsI7
g0
(g38
g2
Ntp3032
Rp3033
(dp3034
g43
I7
sg45
g2974
sg44
I00
sg42
g0
(g32
g2
Ntp3035
Rp3036
(dp3037
g36
(dp3038
I14
g0
(g38
g2
Ntp3039
Rp3040
(dp3041
g43
I14
sg45
g0
(g32
g2
Ntp3042
Rp3043
(dp3044
g36
(dp3045
I15
g0
(g38
g2
Ntp3046
Rp3047
(dp3048
g43
I15
sg45
g2974
sg44
I01
sg42
g3043
sg68
F1.3376776489926927
sbssg50
I00
sg51
I10
sg52
g354
sg54
I0
sg55
F0.0
sg56
(dp3049
I14
g3040
ssg67
I12
sbsg44
I01
sg42
g3036
sg68
F1.9100043880017858
sbsI7
g3033
ssg50
I00
sg51
I0
sg52
g65
sg54
I0
sg55
F0.0
sg56
(dp3050
sg67
I6
sbsg68
F0.04112021763157821
sbsI8
g0
(g38
g2
Ntp3051
Rp3052
(dp3053
g43
I8
sg45
g2974
sg44
I01
sg42
g0
(g32
g2
Ntp3054
Rp3055
(dp3056
g36
(dp3057
I8
g3052
ssg50
I00
sg51
I0
sg52
g65
sg54
I0
sg55
F0.0
sg56
(dp3058
sg67
I7
sbsg68
F-0.05806435738768281
sbsI9
g0
(g38
g2
Ntp3059
Rp3060
(dp3061
g42
g0
(g32
g2
Ntp3062
Rp3063
(dp3064
g36
(dp3065
I9
g3060
ssg50
I00
sg51
I0
sg52
g65
sg54
I0
sg55
F0.0
sg56
(dp3066
sg67
I8
sbsg68
F1.5167796898352777
sg44
I01
sg45
g2974
sg43
I9
sbsI10
g0
(g38
g2
Ntp3067
Rp3068
(dp3069
g43
I10
sg45
g2974
sg44
I01
sg42
g0
(g32
g2
Ntp3070
Rp3071
(dp3072
g36
(dp3073
I10
g3068
ssg50
I00
sg51
I0
sg52
g65
sg54
I0
sg55
F0.0
sg56
(dp3074
sg67
I9
sbsg68
F1.330462262631871
sbsI12
g3017
sI15
g3047
ssg67
I10
sbsg44
I00
sg42
g2967
sg68
F-1.8667154934935484
sbsI11
g3021
ssg50
I00
sg51
I0
sg52
g65
sg54
I0
sg55
F0.0
sg56
(dp3075
sg67
I0
sbsI1
g2982
sI2
g2990
sI3
g2998
sI4
g3006
sI5
g3028
sI6
g3036
sI7
g3055
sI8
g3063
sI9
g3071
sI10
g2974
sI11
g3013
sI12
g3043
ssg134
(lp3076
g2974
asg9
(iinnovation
Innovation
p3077
(dp3078
g12
I16
sbsg138
(dp3079
I1
g0
(g38
g2
Ntp3080
Rp3081
(dp3082
g42
g2967
sg43
I1
sg44
I00
sg45
g2974
sg68
F0.22461772024095497
sbsI2
g0
(g38
g2
Ntp3083
Rp3084
(dp3085
g42
g2982
sg43
I2
sg44
I01
sg45
g2974
sg68
F-0.20027221368573922
sbsI3
g0
(g38
g2
Ntp3086
Rp3087
(dp3088
g42
g2990
sg43
I3
sg44
I01
sg45
g2974
sg68
F1.9331135486157558
sbsI4
g0
(g38
g2
Ntp3089
Rp3090
(dp3091
g42
g2998
sg43
I4
sg44
I01
sg45
g2974
sg68
F0.32619353462699757
sbsI5
g0
(g38
g2
Ntp3092
Rp3093
(dp3094
g42
g3006
sg43
I5
sg44
I01
sg45
g2974
sg68
F-1.0212133614815597
sbsI6
g0
(g38
g2
Ntp3095
Rp3096
(dp3097
g42
g3028
sg43
I6
sg44
I01
sg45
g2974
sg68
F-1.1410665755024052
sbsI7
g0
(g38
g2
Ntp3098
Rp3099
(dp3100
g42
g3036
sg43
I7
sg44
I00
sg45
g2974
sg68
F-1.6362733979947752
sbsI8
g0
(g38
g2
Ntp3101
Rp3102
(dp3103
g42
g3055
sg43
I8
sg44
I01
sg45
g2974
sg68
F0.2331257749218457
sbsI9
g0
(g38
g2
Ntp3104
Rp3105
(dp3106
g42
g3063
sg43
I9
sg44
I01
sg45
g2974
sg68
F-1.6500863156492127
sbsI10
g0
(g38
g2
Ntp3107
Rp3108
(dp3109
g42
g3071
sg43
I10
sg44
I01
sg45
g2974
sg68
F0.28866283859698383
sbsI11
g0
(g38
g2
Ntp3110
Rp3111
(dp3112
g42
g2967
sg68
F-1.0086925220578618
sg44
I01
sg45
g3013
sg43
I11
sbsI12
g0
(g38
g2
Ntp3113
Rp3114
(dp3115
g42
g3013
sg68
F1.506510768639165
sg44
I01
sg45
g2974
sg43
I12
sbsI13
g0
(g38
g2
Ntp3116
Rp3117
(dp3118
g42
g3006
sg68
F0.14180505970161908
sg44
I01
sg45
g3013
sg43
I13
sbsI14
g3040
sI15
g3047
ssg140
I4
sg141
I10
sg142
I50
sg143
F-808.0
sg144
I13
sg145
(lp3119
g2967
ag2982
ag2990
ag2998
ag3006
ag3028
ag3036
ag3055
ag3063
ag3071
asg147
(lp3120
g3013
ag3043
asbsI11
g0
(g24
g2
Ntp3121
Rp3122
(dp3123
g28
Nsg29
I1
sg30
(dp3124
I0
g0
(g32
g2
Ntp3125
Rp3126
(dp3127
g36
(dp3128
I1
g0
(g38
g2
Ntp3129
Rp3130
(dp3131
g43
I1
sg45
g0
(g32
g2
Ntp3132
Rp3133
(dp3134
g36
(dp3135
sg50
I00
sg51
I11
sg52
g53
sg54
I0
sg55
F0.0
sg56
(dp3136
I1
g3130
sI2
g0
(g38
g2
Ntp3137
Rp3138
(dp3139
g43
I2
sg45
g3133
sg44
I01
sg42
g0
(g32
g2
Ntp3140
Rp3141
(dp3142
g36
(dp3143
I2
g3138
ssg50
I00
sg51
I0
sg52
g65
sg54
I0
sg55
F0.0
sg56
(dp3144
sg67
I1
sbsg68
F-0.2988090010636185
sbsI3
g0
(g38
g2
Ntp3145
Rp3146
(dp3147
g43
I3
sg45
g3133
sg44
I01
sg42
g0
(g32
g2
Ntp3148
Rp3149
(dp3150
g36
(dp3151
I3
g3146
ssg50
I00
sg51
I0
sg52
g65
sg54
I0
sg55
F0.0
sg56
(dp3152
sg67
I2
sbsg68
F-0.007876077395040496
sbsI4
g0
(g38
g2
Ntp3153
Rp3154
(dp3155
g43
I4
sg45
g3133
sg44
I01
sg42
g0
(g32
g2
Ntp3156
Rp3157
(dp3158
g36
(dp3159
I4
g3154
ssg50
I00
sg51
I0
sg52
g65
sg54
I0
sg55
F0.0
sg56
(dp3160
sg67
I3
sbsg68
F-0.07992207340213268
sbsI5
g0
(g38
g2
Ntp3161
Rp3162
(dp3163
g43
I5
sg45
g3133
sg44
I01
sg42
g0
(g32
g2
Ntp3164
Rp3165
(dp3166
g36
(dp3167
I5
g3162
sI13
g0
(g38
g2
Ntp3168
Rp3169
(dp3170
g42
g3165
sg68
F-0.6547551850270994
sg44
I01
sg45
g0
(g32
g2
Ntp3171
Rp3172
(dp3173
g36
(dp3174
I12
g0
(g38
g2
Ntp3175
Rp3176
(dp3177
g43
I12
sg45
g3133
sg44
I01
sg42
g3172
sg68
F1.6558438408672056
sbssg50
I00
sg51
I2
sg52
g1695
sg54
I0
sg55
F0.0
sg56
(dp3178
I11
g0
(g38
g2
Ntp3179
Rp3180
(dp3181
g42
g3126
sg68
F1.9111208717329102
sg44
I01
sg45
g3172
sg43
I11
sbsI13
g3169
sI14
g0
(g38
g2
Ntp3182
Rp3183
(dp3184
g43
I14
sg45
g3172
sg44
I01
sg42
g0
(g32
g2
Ntp3185
Rp3186
(dp3187
g36
(dp3188
I8
g0
(g38
g2
Ntp3189
Rp3190
(dp3191
g42
g3186
sg68
F-1.2227297387599099
sg44
I01
sg45
g3133
sg43
I8
sbsI14
g3183
ssg50
I00
sg51
I0
sg52
g65
sg54
I0
sg55
F0.0
sg56
(dp3192
sg67
I7
sbsg68
F0.31005068453608425
sbssg67
I11
sbsg43
I13
sbssg50
I00
sg51
I0
sg52
g65
sg54
I0
sg55
F0.0
sg56
(dp3193
sg67
I4
sbsg68
F0.4850948569042579
sbsI6
g0
(g38
g2
Ntp3194
Rp3195
(dp3196
g43
I6
sg45
g3133
sg44
I01
sg42
g0
(g32
g2
Ntp3197
Rp3198
(dp3199
g36
(dp3200
I6
g3195
ssg50
I00
sg51
I0
sg52
g65
sg54
I0
sg55
F0.0
sg56
(dp3201
sg67
I5
sbsg68
F1.2985362514725776
sbsI7
g0
(g38
g2
Ntp3202
Rp3203
(dp3204
g42
g0
(g32
g2
Ntp3205
Rp3206
(dp3207
g36
(dp3208
I7
g3203
ssg50
I00
sg51
I0
sg52
g65
sg54
I0
sg55
F0.0
sg56
(dp3209
sg67
I6
sbsg68
F-1.4778840791167749
sg44
I01
sg45
g3133
sg43
I7
sbsI8
g3190
sI9
g0
(g38
g2
Ntp3210
Rp3211
(dp3212
g43
I9
sg45
g3133
sg44
I01
sg42
g0
(g32
g2
Ntp3213
Rp3214
(dp3215
g36
(dp3216
I9
g3211
ssg50
I00
sg51
I0
sg52
g65
sg54
I0
sg55
F0.0
sg56
(dp3217
sg67
I8
sbsg68
F-0.7780922674912254
sbsI10
g0
(g38
g2
Ntp3218
Rp3219
(dp3220
g43
I10
sg45
g3133
sg44
I01
sg42
g0
(g32
g2
Ntp3221
Rp3222
(dp3223
g36
(dp3224
I10
g3219
ssg50
I00
sg51
I0
sg52
g65
sg54
I0
sg55
F0.0
sg56
(dp3225
sg67
I9
sbsg68
F1.1441131784742706
sbsI12
g3176
ssg67
I10
sbsg44
I00
sg42
g3126
sg68
F-1.6996958204545731
sbsI11
g3180
ssg50
I00
sg51
I0
sg52
g65
sg54
I0
sg55
F0.0
sg56
(dp3226
sg67
I0
sbsI1
g3141
sI2
g3149
sI3
g3157
sI4
g3165
sI5
g3198
sI6
g3206
sI7
g3186
sI8
g3214
sI9
g3222
sI10
g3133
sI11
g3172
ssg134
(lp3227
g3133
asg9
(iinnovation
Innovation
p3228
(dp3229
g12
I15
sbsg138
(dp3230
I1
g0
(g38
g2
Ntp3231
Rp3232
(dp3233
g42
g3126
sg43
I1
sg44
I00
sg45
g3133
sg68
F-1.6564783858552443
sbsI2
g0
(g38
g2
Ntp3234
Rp3235
(dp3236
g42
g3141
sg43
I2
sg44
I01
sg45
g3133
sg68
F2.0309959959384707
sbsI3
g0
(g38
g2
Ntp3237
Rp3238
(dp3239
g42
g3149
sg43
I3
sg44
I01
sg45
g3133
sg68
F-0.0016878270574296056
sbsI4
g0
(g38
g2
Ntp3240
Rp3241
(dp3242
g42
g3157
sg43
I4
sg44
I01
sg45
g3133
sg68
F-0.10413243214237351
sbsI5
g0
(g38
g2
Ntp3243
Rp3244
(dp3245
g42
g3165
sg43
I5
sg44
I01
sg45
g3133
sg68
F0.5068861965126064
sbsI6
g0
(g38
g2
Ntp3246
Rp3247
(dp3248
g42
g3198
sg43
I6
sg44
I01
sg45
g3133
sg68
F1.2985362514725776
sbsI7
g0
(g38
g2
Ntp3249
Rp3250
(dp3251
g42
g3206
sg43
I7
sg44
I01
sg45
g3133
sg68
F-0.2347948663794282
sbsI8
g0
(g38
g2
Ntp3252
Rp3253
(dp3254
g42
g3186
sg43
I8
sg44
I01
sg45
g3133
sg68
F-1.172606158576524
sbsI9
g0
(g38
g2
Ntp3255
Rp3256
(dp3257
g42
g3214
sg43
I9
sg44
I01
sg45
g3133
sg68
F-0.6082161553512032
sbsI10
g0
(g38
g2
Ntp3258
Rp3259
(dp3260
g42
g3222
sg43
I10
sg44
I01
sg45
g3133
sg68
F1.1810752204227177
sbsI11
g3180
sI12
g0
(g38
g2
Ntp3261
Rp3262
(dp3263
g42
g3172
sg68
F1.6641340933833544
sg44
I01
sg45
g3133
sg43
I12
sbsI13
g3169
sI14
g3183
ssg140
I4
sg141
I10
sg142
I50
sg143
F-777.0
sg144
I12
sg145
(lp3264
g3126
ag3141
ag3149
ag3157
ag3165
ag3198
ag3206
ag3186
ag3214
ag3222
asg147
(lp3265
g3172
asbsI12
g2522
sI13
g2963
sI14
g2963
sI15
g0
(g24
g2
Ntp3266
Rp3267
(dp3268
g28
Nsg29
I1
sg30
(dp3269
I0
g0
(g32
g2
Ntp3270
Rp3271
(dp3272
g36
(dp3273
I1
g0
(g38
g2
Ntp3274
Rp3275
(dp3276
g43
I1
sg45
g0
(g32
g2
Ntp3277
Rp3278
(dp3279
g36
(dp3280
sg50
I00
sg51
I11
sg52
g53
sg54
I0
sg55
F0.0
sg56
(dp3281
I1
g3275
sI2
g0
(g38
g2
Ntp3282
Rp3283
(dp3284
g43
I2
sg45
g3278
sg44
I01
sg42
g0
(g32
g2
Ntp3285
Rp3286
(dp3287
g36
(dp3288
I2
g3283
ssg50
I00
sg51
I0
sg52
g65
sg54
I0
sg55
F0.0
sg56
(dp3289
sg67
I1
sbsg68
F-1.0763633490547218
sbsI3
g0
(g38
g2
Ntp3290
Rp3291
(dp3292
g43
I3
sg45
g3278
sg44
I01
sg42
g0
(g32
g2
Ntp3293
Rp3294
(dp3295
g36
(dp3296
I3
g3291
ssg50
I00
sg51
I0
sg52
g65
sg54
I0
sg55
F0.0
sg56
(dp3297
sg67
I2
sbsg68
F-2.1134991631396662
sbsI4
g0
(g38
g2
Ntp3298
Rp3299
(dp3300
g43
I4
sg45
g3278
sg44
I01
sg42
g0
(g32
g2
Ntp3301
Rp3302
(dp3303
g36
(dp3304
I4
g3299
ssg50
I00
sg51
I0
sg52
g65
sg54
I0
sg55
F0.0
sg56
(dp3305
sg67
I3
sbsg68
F-0.09091401502550386
sbsI5
g0
(g38
g2
Ntp3306
Rp3307
(dp3308
g43
I5
sg45
g3278
sg44
I01
sg42
g0
(g32
g2
Ntp3309
Rp3310
(dp3311
g36
(dp3312
I5
g3307
sI13
g0
(g38
g2
Ntp3313
Rp3314
(dp3315
g43
I13
sg45
g0
(g32
g2
Ntp3316
Rp3317
(dp3318
g36
(dp3319
I12
g0
(g38
g2
Ntp3320
Rp3321
(dp3322
g43
I12
sg45
g3278
sg44
I01
sg42
g3317
sg68
F-0.587633206230777
sbssg50
I00
sg51
I2
sg52
g1695
sg54
I0
sg55
F0.0
sg56
(dp3323
I11
g0
(g38
g2
Ntp3324
Rp3325
(dp3326
g43
I11
sg45
g3317
sg44
I01
sg42
g3271
sg68
F-1.3387977711322907
sbsI13
g3314
sI14
g0
(g38
g2
Ntp3327
Rp3328
(dp3329
g43
I14
sg45
g3317
sg44
I01
sg42
g0
(g32
g2
Ntp3330
Rp3331
(dp3332
g36
(dp3333
I8
g0
(g38
g2
Ntp3334
Rp3335
(dp3336
g43
I8
sg45
g3278
sg44
I01
sg42
g3331
sg68
F-0.25309284571157886
sbsI14
g3328
ssg50
I00
sg51
I0
sg52
g65
sg54
I0
sg55
F0.0
sg56
(dp3337
sg67
I7
sbsg68
F-0.6846462119843413
sbssg67
I11
sbsg44
I01
sg42
g3310
sg68
F0.7473813945762697
sbssg50
I00
sg51
I0
sg52
g65
sg54
I0
sg55
F0.0
sg56
(dp3338
sg67
I4
sbsg68
F1.373459036348335
sbsI6
g0
(g38
g2
Ntp3339
Rp3340
(dp3341
g43
I6
sg45
g3278
sg44
I01
sg42
g0
(g32
g2
Ntp3342
Rp3343
(dp3344
g36
(dp3345
I6
g3340
ssg50
I00
sg51
I0
sg52
g65
sg54
I0
sg55
F0.0
sg56
(dp3346
sg67
I5
sbsg68
F0.9077189905139762
sbsI7
g0
(g38
g2
Ntp3347
Rp3348
(dp3349
g43
I7
sg45
g3278
sg44
I01
sg42
g0
(g32
g2
Ntp3350
Rp3351
(dp3352
g36
(dp3353
I7
g3348
ssg50
I00
sg51
I0
sg52
g65
sg54
I0
sg55
F0.0
sg56
(dp3354
sg67
I6
sbsg68
F0.14106954841369
sbsI8
g3335
sI9
g0
(g38
g2
Ntp3355
Rp3356
(dp3357
g43
I9
sg45
g3278
sg44
I01
sg42
g0
(g32
g2
Ntp3358
Rp3359
(dp3360
g36
(dp3361
I9
g3356
ssg50
I00
sg51
I0
sg52
g65
sg54
I0
sg55
F0.0
sg56
(dp3362
sg67
I8
sbsg68
F0.8838160794933347
sbsI10
g0
(g38
g2
Ntp3363
Rp3364
(dp3365
g43
I10
sg45
g3278
sg44
I01
sg42
g0
(g32
g2
Ntp3366
Rp3367
(dp3368
g36
(dp3369
I10
g3364
ssg50
I00
sg51
I0
sg52
g65
sg54
I0
sg55
F0.0
sg56
(dp3370
sg67
I9
sbsg68
F1.3855085457534342
sbsI12
g3321
ssg67
I10
sbsg44
I00
sg42
g3271
sg68
F-1.8875154436248394
sbsI11
g3325
ssg50
I00
sg51
I0
sg52
g65
sg54
I0
sg55
F0.0
sg56
(dp3371
sg67
I0
sbsI1
g3286
sI2
g3294
sI3
g3302
sI4
g3310
sI5
g3343
sI6
g3351
sI7
g3331
sI8
g3359
sI9
g3367
sI10
g3278
sI11
g3317
ssg134
(lp3372
g3278
asg9
(iinnovation
Innovation
p3373
(dp3374
g12
I15
sbsg138
(dp3375
I1
g0
(g38
g2
Ntp3376
Rp3377
(dp3378
g42
g3271
sg43
I1
sg44
I00
sg45
g3278
sg68
F-1.8875154436248394
sbsI2
g0
(g38
g2
Ntp3379
Rp3380
(dp3381
g42
g3286
sg43
I2
sg44
I01
sg45
g3278
sg68
F-1.0763633490547218
sbsI3
g0
(g38
g2
Ntp3382
Rp3383
(dp3384
g42
g3294
sg43
I3
sg44
I01
sg45
g3278
sg68
F-1.873116139675215
sbsI4
g0
(g38
g2
Ntp3385
Rp3386
(dp3387
g42
g3302
sg43
I4
sg44
I01
sg45
g3278
sg68
F0.08706016189288424
sbsI5
g0
(g38
g2
Ntp3388
Rp3389
(dp3390
g42
g3310
sg43
I5
sg44
I01
sg45
g3278
sg68
F1.373459036348335
sbsI6
g0
(g38
g2
Ntp3391
Rp3392
(dp3393
g42
g3343
sg43
I6
sg44
I01
sg45
g3278
sg68
F0.8373912408738631
sbsI7
g0
(g38
g2
Ntp3394
Rp3395
(dp3396
g42
g3351
sg43
I7
sg44
I01
sg45
g3278
sg68
F0.22561013852932538
sbsI8
g0
(g38
g2
Ntp3397
Rp3398
(dp3399
g42
g3331
sg43
I8
sg44
I01
sg45
g3278
sg68
F-0.25309284571157886
sbsI9
g0
(g38
g2
Ntp3400
Rp3401
(dp3402
g42
g3359
sg43
I9
sg44
I01
sg45
g3278
sg68
F0.8838160794933347
sbsI10
g0
(g38
g2
Ntp3403
Rp3404
(dp3405
g42
g3367
sg43
I10
sg44
I01
sg45
g3278
sg68
F1.3855085457534342
sbsI11
g0
(g38
g2
Ntp3406
Rp3407
(dp3408
g42
g3271
sg68
F-1.3387977711322907
sg44
I01
sg45
g3317
sg43
I11
sbsI12
g0
(g38
g2
Ntp3409
Rp3410
(dp3411
g42
g3317
sg68
F-0.3641886858603011
sg44
I01
sg45
g3278
sg43
I12
sbsI13
g0
(g38
g2
Ntp3412
Rp3413
(dp3414
g42
g3310
sg68
F0.8306250842314831
sg44
I01
sg45
g3317
sg43
I13
sbsI14
g3328
ssg140
I4
sg141
I10
sg142
I50
sg143
F-950.0
sg144
I12
sg145
(lp3415
g3271
ag3286
ag3294
ag3302
ag3310
ag3343
ag3351
ag3331
ag3359
ag3367
asg147
(lp3416
g3317
asbsI16
g2963
sI17
g1788
sI18
g3267
sI19
g2371
sI20
g2223
sI21
g2078
sI22
g3122
sI23
g2371
sI24
g1788
sI25
g2223
sI26
g2371
sI27
g2963
sI28
g2371
sI29
g2522
sI30
g3267
sI31
g2963
sI32
g3267
sI33
g2963
sI34
g2078
sI35
g2963
sI36
g0
(g24
g2
Ntp3417
Rp3418
(dp3419
g28
Nsg29
I1
sg30
(dp3420
I0
g0
(g32
g2
Ntp3421
Rp3422
(dp3423
g36
(dp3424
I1
g0
(g38
g2
Ntp3425
Rp3426
(dp3427
g43
I1
sg45
g0
(g32
g2
Ntp3428
Rp3429
(dp3430
g36
(dp3431
sg50
I00
sg51
I11
sg52
g53
sg54
I0
sg55
F0.0
sg56
(dp3432
I1
g3426
sI2
g0
(g38
g2
Ntp3433
Rp3434
(dp3435
g43
I2
sg45
g3429
sg44
I01
sg42
g0
(g32
g2
Ntp3436
Rp3437
(dp3438
g36
(dp3439
I2
g3434
ssg50
I00
sg51
I0
sg52
g65
sg54
I0
sg55
F0.0
sg56
(dp3440
sg67
I1
sbsg68
F-1.1598701956146722
sbsI3
g0
(g38
g2
Ntp3441
Rp3442
(dp3443
g43
I3
sg45
g3429
sg44
I01
sg42
g0
(g32
g2
Ntp3444
Rp3445
(dp3446
g36
(dp3447
I3
g3442
ssg50
I00
sg51
I0
sg52
g65
sg54
I0
sg55
F0.0
sg56
(dp3448
sg67
I2
sbsg68
F-2.0349772331238896
sbsI4
g0
(g38
g2
Ntp3449
Rp3450
(dp3451
g42
g0
(g32
g2
Ntp3452
Rp3453
(dp3454
g36
(dp3455
I4
g3450
ssg50
I00
sg51
I0
sg52
g65
sg54
I0
sg55
F0.0
sg56
(dp3456
sg67
I3
sbsg43
I4
sg44
I01
sg45
g3429
sg68
F-1.0808287340327456
sbsI5
g0
(g38
g2
Ntp3457
Rp3458
(dp3459
g43
I5
sg45
g3429
sg44
I01
sg42
g0
(g32
g2
Ntp3460
Rp3461
(dp3462
g36
(dp3463
I5
g3458
sI13
g0
(g38
g2
Ntp3464
Rp3465
(dp3466
g43
I13
sg45
g0
(g32
g2
Ntp3467
Rp3468
(dp3469
g36
(dp3470
I12
g0
(g38
g2
Ntp3471
Rp3472
(dp3473
g42
g3468
sg43
I12
sg44
I01
sg45
g3429
sg68
F-0.7012429456577527
sbssg50
I00
sg51
I2
sg52
g1695
sg54
I0
sg55
F0.0
sg56
(dp3474
I11
g0
(g38
g2
Ntp3475
Rp3476
(dp3477
g43
I11
sg45
g3468
sg44
I01
sg42
g3422
sg68
F-1.3521055213386255
sbsI13
g3465
ssg67
I11
sbsg44
I01
sg42
g3461
sg68
F-0.7464932267859539
sbssg50
I00
sg51
I0
sg52
g65
sg54
I0
sg55
F0.0
sg56
(dp3478
sg67
I4
sbsg68
F1.6350030486853764
sbsI6
g0
(g38
g2
Ntp3479
Rp3480
(dp3481
g43
I6
sg45
g3429
sg44
I01
sg42
g0
(g32
g2
Ntp3482
Rp3483
(dp3484
g36
(dp3485
I6
g3480
ssg50
I00
sg51
I0
sg52
g65
sg54
I0
sg55
F0.0
sg56
(dp3486
sg67
I5
sbsg68
F1.4361375531571223
sbsI7
g0
(g38
g2
Ntp3487
Rp3488
(dp3489
g42
g0
(g32
g2
Ntp3490
Rp3491
(dp3492
g36
(dp3493
I7
g3488
ssg50
I00
sg51
I0
sg52
g65
sg54
I0
sg55
F0.0
sg56
(dp3494
sg67
I6
sbsg43
I7
sg44
I01
sg45
g3429
sg68
F-1.4778840791167749
sbsI8
g0
(g38
g2
Ntp3495
Rp3496
(dp3497
g43
I8
sg45
g3429
sg44
I01
sg42
g0
(g32
g2
Ntp3498
Rp3499
(dp3500
g36
(dp3501
I8
g3496
ssg50
I00
sg51
I0
sg52
g65
sg54
I0
sg55
F0.0
sg56
(dp3502
sg67
I7
sbsg68
F-1.0960612322761563
sbsI9
g0
(g38
g2
Ntp3503
Rp3504
(dp3505
g42
g0
(g32
g2
Ntp3506
Rp3507
(dp3508
g36
(dp3509
I9
g3504
ssg50
I00
sg51
I0
sg52
g65
sg54
I0
sg55
F0.0
sg56
(dp3510
sg67
I8
sbsg43
I9
sg44
I01
sg45
g3429
sg68
F1.5167796898352777
sbsI10
g0
(g38
g2
Ntp3511
Rp3512
(dp3513
g43
I10
sg45
g3429
sg44
I01
sg42
g0
(g32
g2
Ntp3514
Rp3515
(dp3516
g36
(dp3517
I10
g3512
ssg50
I00
sg51
I0
sg52
g65
sg54
I0
sg55
F0.0
sg56
(dp3518
sg67
I9
sbsg68
F1.234954207745431
sbsI12
g3472
ssg67
I10
sbsg44
I00
sg42
g3422
sg68
F-1.9804499936761442
sbsI11
g3476
ssg50
I00
sg51
I0
sg52
g65
sg54
I0
sg55
F0.0
sg56
(dp3519
sg67
I0
sbsI1
g3437
sI2
g3445
sI3
g3453
sI4
g3461
sI5
g3483
sI6
g3491
sI7
g3499
sI8
g3507
sI9
g3515
sI10
g3429
sI11
g3468
ssg134
(lp3520
g3429
asg9
(iinnovation
Innovation
p3521
(dp3522
g12
I14
sbsg138
(dp3523
I1
g0
(g38
g2
Ntp3524
Rp3525
(dp3526
g43
I1
sg45
g3429
sg44
I00
sg42
g3422
sg68
F-0.11100608170643333
sbsI2
g0
(g38
g2
Ntp3527
Rp3528
(dp3529
g43
I2
sg45
g3429
sg44
I01
sg42
g3437
sg68
F-1.1598701956146722
sbsI3
g0
(g38
g2
Ntp3530
Rp3531
(dp3532
g43
I3
sg45
g3429
sg44
I01
sg42
g3445
sg68
F1.8718501384856467
sbsI4
g0
(g38
g2
Ntp3533
Rp3534
(dp3535
g43
I4
sg45
g3429
sg44
I01
sg42
g3453
sg68
F-0.2918945421231444
sbsI5
g0
(g38
g2
Ntp3536
Rp3537
(dp3538
g43
I5
sg45
g3429
sg44
I01
sg42
g3461
sg68
F1.6911965324082407
sbsI6
g0
(g38
g2
Ntp3539
Rp3540
(dp3541
g43
I6
sg45
g3429
sg44
I01
sg42
g3483
sg68
F1.4349517489923775
sbsI7
g0
(g38
g2
Ntp3542
Rp3543
(dp3544
g43
I7
sg45
g3429
sg44
I01
sg42
g3491
sg68
F0.15884845532956635
sbsI8
g0
(g38
g2
Ntp3545
Rp3546
(dp3547
g43
I8
sg45
g3429
sg44
I01
sg42
g3499
sg68
F-1.1362468410500801
sbsI9
g0
(g38
g2
Ntp3548
Rp3549
(dp3550
g43
I9
sg45
g3429
sg44
I01
sg42
g3507
sg68
F1.9001574478406384
sbsI10
g0
(g38
g2
Ntp3551
Rp3552
(dp3553
g43
I10
sg45
g3429
sg44
I01
sg42
g3515
sg68
F1.3598622835830967
sbsI11
g0
(g38
g2
Ntp3554
Rp3555
(dp3556
g42
g3422
sg43
I11
sg44
I01
sg45
g3468
sg68
F-1.297654429923327
sbsI12
g3472
sI13
g0
(g38
g2
Ntp3557
Rp3558
(dp3559
g42
g3461
sg43
I13
sg44
I01
sg45
g3468
sg68
F-0.7646977505150803
sbssg140
I4
sg141
I10
sg142
I50
sg143
F-89.44000000000005
sg144
I12
sg145
(lp3560
g3422
ag3437
ag3445
ag3453
ag3461
ag3483
ag3491
ag3499
ag3507
ag3515
asg147
(lp3561
g3468
asbsI37
g2223
sI38
g1788
sI39
g2371
sI40
g2522
sI41
g2522
sI42
g2223
sI43
g2371
sI44
g2963
sI45
g2963
sI46
g3418
sI47
g0
(g24
g2
Ntp3562
Rp3563
(dp3564
g28
I1
sg29
I1
sg30
(dp3565
I0
g0
(g32
g2
Ntp3566
Rp3567
(dp3568
g36
(dp3569
I1
g0
(g38
g2
Ntp3570
Rp3571
(dp3572
g42
g3567
sg68
F0.13412296544333735
sg44
I01
sg45
g0
(g32
g2
Ntp3573
Rp3574
(dp3575
g36
(dp3576
sg50
I00
sg51
I11
sg52
g53
sg54
I0
sg55
F0.0
sg56
(dp3577
I1
g3571
sI2
g0
(g38
g2
Ntp3578
Rp3579
(dp3580
g42
g0
(g32
g2
Ntp3581
Rp3582
(dp3583
g36
(dp3584
I2
g3579
ssg50
I00
sg51
I0
sg52
g65
sg54
I0
sg55
F0.0
sg56
(dp3585
sg67
I1
sbsg43
I2
sg44
I01
sg45
g3574
sg68
F1.8276044601323225
sbsI3
g0
(g38
g2
Ntp3586
Rp3587
(dp3588
g42
g0
(g32
g2
Ntp3589
Rp3590
(dp3591
g36
(dp3592
I3
g3587
ssg50
I00
sg51
I0
sg52
g65
sg54
I0
sg55
F0.0
sg56
(dp3593
sg67
I2
sbsg68
F2.0116809674895326
sg44
I01
sg45
g3574
sg43
I3
sbsI4
g0
(g38
g2
Ntp3594
Rp3595
(dp3596
g42
g0
(g32
g2
Ntp3597
Rp3598
(dp3599
g36
(dp3600
I11
g0
(g38
g2
Ntp3601
Rp3602
(dp3603
g42
g3598
sg43
I11
sg44
I01
sg45
g0
(g32
g2
Ntp3604
Rp3605
(dp3606
g36
(dp3607
I12
g0
(g38
g2
Ntp3608
Rp3609
(dp3610
g42
g3605
sg43
I12
sg44
I01
sg45
g3574
sg68
F0.9279533555003948
sbssg50
I00
sg51
I2
sg52
g354
sg54
I0
sg55
F0.0
sg56
(dp3611
I11
g3602
sI13
g0
(g38
g2
Ntp3612
Rp3613
(dp3614
g42
g0
(g32
g2
Ntp3615
Rp3616
(dp3617
g36
(dp3618
I13
g3613
sI6
g0
(g38
g2
Ntp3619
Rp3620
(dp3621
g42
g3616
sg43
I6
sg44
I01
sg45
g3574
sg68
F-0.47785798253620015
sbssg50
I00
sg51
I0
sg52
g65
sg54
I0
sg55
F0.0
sg56
(dp3622
sg67
I5
sbsg43
I13
sg44
I01
sg45
g3605
sg68
F-0.46660283012160697
sbssg67
I11
sbsg68
F1.7730696767219707
sbsI4
g3595
ssg50
I00
sg51
I0
sg52
g65
sg54
I0
sg55
F0.0
sg56
(dp3623
sg67
I3
sbsg43
I4
sg44
I01
sg45
g3574
sg68
F0.33455310350830136
sbsI5
g0
(g38
g2
Ntp3624
Rp3625
(dp3626
g42
g0
(g32
g2
Ntp3627
Rp3628
(dp3629
g36
(dp3630
I5
g3625
ssg50
I00
sg51
I0
sg52
g65
sg54
I0
sg55
F0.0
sg56
(dp3631
sg67
I4
sbsg43
I5
sg44
I01
sg45
g3574
sg68
F-0.6180860643180761
sbsI6
g3620
sI7
g0
(g38
g2
Ntp3632
Rp3633
(dp3634
g42
g0
(g32
g2
Ntp3635
Rp3636
(dp3637
g36
(dp3638
I7
g3633
ssg50
I00
sg51
I0
sg52
g65
sg54
I0
sg55
F0.0
sg56
(dp3639
sg67
I6
sbsg43
I7
sg44
I01
sg45
g3574
sg68
F-1.396450124576905
sbsI8
g0
(g38
g2
Ntp3640
Rp3641
(dp3642
g42
g0
(g32
g2
Ntp3643
Rp3644
(dp3645
g36
(dp3646
I8
g3641
ssg50
I00
sg51
I0
sg52
g65
sg54
I0
sg55
F0.0
sg56
(dp3647
sg67
I7
sbsg43
I8
sg44
I01
sg45
g3574
sg68
F0.7244502244713007
sbsI9
g0
(g38
g2
Ntp3648
Rp3649
(dp3650
g42
g0
(g32
g2
Ntp3651
Rp3652
(dp3653
g36
(dp3654
I9
g3649
ssg50
I00
sg51
I0
sg52
g65
sg54
I0
sg55
F0.0
sg56
(dp3655
sg67
I8
sbsg43
I9
sg44
I01
sg45
g3574
sg68
F2.2786831179282037
sbsI10
g0
(g38
g2
Ntp3656
Rp3657
(dp3658
g42
g0
(g32
g2
Ntp3659
Rp3660
(dp3661
g36
(dp3662
I10
g3657
ssg50
I00
sg51
I0
sg52
g65
sg54
I0
sg55
F0.0
sg56
(dp3663
sg67
I9
sbsg43
I10
sg44
I01
sg45
g3574
sg68
F0.08886455842307601
sbsI12
g3609
ssg67
I10
sbsg43
I1
sbssg50
I00
sg51
I0
sg52
g65
sg54
I0
sg55
F0.0
sg56
(dp3664
sg67
I0
sbsI1
g3582
sI2
g3590
sI3
g3598
sI4
g3628
sI5
g3616
sI6
g3636
sI7
g3644
sI8
g3652
sI9
g3660
sI10
g3574
sI11
g3605
ssg134
(lp3665
g3574
asg9
(iinnovation
Innovation
p3666
(dp3667
g12
I14
sbsg138
(dp3668
I1
g0
(g38
g2
Ntp3669
Rp3670
(dp3671
g42
g3567
sg43
I1
sg44
I01
sg45
g3574
sg68
F0.01904873887353775
sbsI2
g3579
sI3
g0
(g38
g2
Ntp3672
Rp3673
(dp3674
g42
g3590
sg43
I3
sg44
I01
sg45
g3574
sg68
F-1.632527109316004
sbsI4
g0
(g38
g2
Ntp3675
Rp3676
(dp3677
g42
g3598
sg43
I4
sg44
I00
sg45
g3574
sg68
F0.0765557601294993
sbsI5
g0
(g38
g2
Ntp3678
Rp3679
(dp3680
g42
g3628
sg43
I5
sg44
I01
sg45
g3574
sg68
F-0.4460343818773243
sbsI6
g0
(g38
g2
Ntp3681
Rp3682
(dp3683
g42
g3616
sg43
I6
sg44
I01
sg45
g3574
sg68
F-0.2756504235753311
sbsI7
g0
(g38
g2
Ntp3684
Rp3685
(dp3686
g42
g3636
sg43
I7
sg44
I01
sg45
g3574
sg68
F-1.5652842883887346
sbsI8
g0
(g38
g2
Ntp3687
Rp3688
(dp3689
g42
g3644
sg43
I8
sg44
I01
sg45
g3574
sg68
F0.8268531149406119
sbsI9
g0
(g38
g2
Ntp3690
Rp3691
(dp3692
g42
g3652
sg43
I9
sg44
I01
sg45
g3574
sg68
F1.7801157755382677
sbsI10
g0
(g38
g2
Ntp3693
Rp3694
(dp3695
g42
g3660
sg43
I10
sg44
I01
sg45
g3574
sg68
F0.08042644924812642
sbsI11
g0
(g38
g2
Ntp3696
Rp3697
(dp3698
g42
g3598
sg43
I11
sg44
I01
sg45
g3605
sg68
F1.768872407042452
sbsI12
g0
(g38
g2
Ntp3699
Rp3700
(dp3701
g42
g3605
sg43
I12
sg44
I01
sg45
g3574
sg68
F1.0116318310347692
sbsI13
g3613
ssg140
I4
sg141
I10
sg142
I50
sg143
F-734.0
sg144
I12
sg145
(lp3702
g3567
ag3582
ag3590
ag3598
ag3628
ag3616
ag3636
ag3644
ag3652
ag3660
asg147
(lp3703
g3605
asbsI48
g0
(g24
g2
Ntp3704
Rp3705
(dp3706
g28
I1
sg29
I1
sg30
(dp3707
I0
g0
(g32
g2
Ntp3708
Rp3709
(dp3710
g36
(dp3711
I1
g0
(g38
g2
Ntp3712
Rp3713
(dp3714
g42
g3709
sg68
F0.13412296544333735
sg44
I01
sg45
g0
(g32
g2
Ntp3715
Rp3716
(dp3717
g36
(dp3718
sg50
I00
sg51
I11
sg52
g53
sg54
I0
sg55
F0.0
sg56
(dp3719
I1
g3713
sI2
g0
(g38
g2
Ntp3720
Rp3721
(dp3722
g42
g0
(g32
g2
Ntp3723
Rp3724
(dp3725
g36
(dp3726
I2
g3721
ssg50
I00
sg51
I0
sg52
g65
sg54
I0
sg55
F0.0
sg56
(dp3727
sg67
I1
sbsg43
I2
sg44
I01
sg45
g3716
sg68
F1.8276044601323225
sbsI3
g0
(g38
g2
Ntp3728
Rp3729
(dp3730
g42
g0
(g32
g2
Ntp3731
Rp3732
(dp3733
g36
(dp3734
I3
g3729
ssg50
I00
sg51
I0
sg52
g65
sg54
I0
sg55
F0.0
sg56
(dp3735
sg67
I2
sbsg68
F2.0116809674895326
sg44
I01
sg45
g3716
sg43
I3
sbsI4
g0
(g38
g2
Ntp3736
Rp3737
(dp3738
g42
g0
(g32
g2
Ntp3739
Rp3740
(dp3741
g36
(dp3742
I11
g0
(g38
g2
Ntp3743
Rp3744
(dp3745
g42
g3740
sg43
I11
sg44
I01
sg45
g0
(g32
g2
Ntp3746
Rp3747
(dp3748
g36
(dp3749
I12
g0
(g38
g2
Ntp3750
Rp3751
(dp3752
g42
g3747
sg43
I12
sg44
I01
sg45
g3716
sg68
F0.9279533555003948
sbssg50
I00
sg51
I2
sg52
g354
sg54
I0
sg55
F0.0
sg56
(dp3753
I11
g3744
sI13
g0
(g38
g2
Ntp3754
Rp3755
(dp3756
g42
g0
(g32
g2
Ntp3757
Rp3758
(dp3759
g36
(dp3760
I13
g3755
sI6
g0
(g38
g2
Ntp3761
Rp3762
(dp3763
g42
g3758
sg43
I6
sg44
I01
sg45
g3716
sg68
F-0.47785798253620015
sbssg50
I00
sg51
I0
sg52
g65
sg54
I0
sg55
F0.0
sg56
(dp3764
sg67
I5
sbsg43
I13
sg44
I01
sg45
g3747
sg68
F-0.46660283012160697
sbssg67
I11
sbsg68
F1.7730696767219707
sbsI4
g3737
ssg50
I00
sg51
I0
sg52
g65
sg54
I0
sg55
F0.0
sg56
(dp3765
sg67
I3
sbsg43
I4
sg44
I01
sg45
g3716
sg68
F0.33455310350830136
sbsI5
g0
(g38
g2
Ntp3766
Rp3767
(dp3768
g42
g0
(g32
g2
Ntp3769
Rp3770
(dp3771
g36
(dp3772
I5
g3767
ssg50
I00
sg51
I0
sg52
g65
sg54
I0
sg55
F0.0
sg56
(dp3773
sg67
I4
sbsg43
I5
sg44
I01
sg45
g3716
sg68
F-0.6180860643180761
sbsI6
g3762
sI7
g0
(g38
g2
Ntp3774
Rp3775
(dp3776
g42
g0
(g32
g2
Ntp3777
Rp3778
(dp3779
g36
(dp3780
I7
g3775
ssg50
I00
sg51
I0
sg52
g65
sg54
I0
sg55
F0.0
sg56
(dp3781
sg67
I6
sbsg43
I7
sg44
I01
sg45
g3716
sg68
F-1.396450124576905
sbsI8
g0
(g38
g2
Ntp3782
Rp3783
(dp3784
g42
g0
(g32
g2
Ntp3785
Rp3786
(dp3787
g36
(dp3788
I8
g3783
ssg50
I00
sg51
I0
sg52
g65
sg54
I0
sg55
F0.0
sg56
(dp3789
sg67
I7
sbsg43
I8
sg44
I01
sg45
g3716
sg68
F0.7244502244713007
sbsI9
g0
(g38
g2
Ntp3790
Rp3791
(dp3792
g42
g0
(g32
g2
Ntp3793
Rp3794
(dp3795
g36
(dp3796
I9
g3791
ssg50
I00
sg51
I0
sg52
g65
sg54
I0
sg55
F0.0
sg56
(dp3797
sg67
I8
sbsg43
I9
sg44
I01
sg45
g3716
sg68
F2.2786831179282037
sbsI10
g0
(g38
g2
Ntp3798
Rp3799
(dp3800
g42
g0
(g32
g2
Ntp3801
Rp3802
(dp3803
g36
(dp3804
I10
g3799
ssg50
I00
sg51
I0
sg52
g65
sg54
I0
sg55
F0.0
sg56
(dp3805
sg67
I9
sbsg43
I10
sg44
I01
sg45
g3716
sg68
F0.08886455842307601
sbsI12
g3751
ssg67
I10
sbsg43
I1
sbssg50
I00
sg51
I0
sg52
g65
sg54
I0
sg55
F0.0
sg56
(dp3806
sg67
I0
sbsI1
g3724
sI2
g3732
sI3
g3740
sI4
g3770
sI5
g3758
sI6
g3778
sI7
g3786
sI8
g3794
sI9
g3802
sI10
g3716
sI11
g3747
ssg134
(lp3807
g3716
asg9
(iinnovation
Innovation
p3808
(dp3809
g12
I14
sbsg138
(dp3810
I1
g0
(g38
g2
Ntp3811
Rp3812
(dp3813
g42
g3709
sg43
I1
sg44
I01
sg45
g3716
sg68
F0.01904873887353775
sbsI2
g3721
sI3
g0
(g38
g2
Ntp3814
Rp3815
(dp3816
g42
g3732
sg43
I3
sg44
I01
sg45
g3716
sg68
F-1.632527109316004
sbsI4
g0
(g38
g2
Ntp3817
Rp3818
(dp3819
g42
g3740
sg43
I4
sg44
I00
sg45
g3716
sg68
F0.0765557601294993
sbsI5
g0
(g38
g2
Ntp3820
Rp3821
(dp3822
g42
g3770
sg43
I5
sg44
I01
sg45
g3716
sg68
F-0.4460343818773243
sbsI6
g0
(g38
g2
Ntp3823
Rp3824
(dp3825
g42
g3758
sg43
I6
sg44
I01
sg45
g3716
sg68
F-0.2756504235753311
sbsI7
g0
(g38
g2
Ntp3826
Rp3827
(dp3828
g42
g3778
sg43
I7
sg44
I01
sg45
g3716
sg68
F-1.5652842883887346
sbsI8
g0
(g38
g2
Ntp3829
Rp3830
(dp3831
g42
g3786
sg43
I8
sg44
I01
sg45
g3716
sg68
F0.8268531149406119
sbsI9
g0
(g38
g2
Ntp3832
Rp3833
(dp3834
g42
g3794
sg43
I9
sg44
I01
sg45
g3716
sg68
F1.7801157755382677
sbsI10
g0
(g38
g2
Ntp3835
Rp3836
(dp3837
g42
g3802
sg43
I10
sg44
I01
sg45
g3716
sg68
F0.08042644924812642
sbsI11
g0
(g38
g2
Ntp3838
Rp3839
(dp3840
g42
g3740
sg43
I11
sg44
I01
sg45
g3747
sg68
F1.768872407042452
sbsI12
g0
(g38
g2
Ntp3841
Rp3842
(dp3843
g42
g3747
sg43
I12
sg44
I01
sg45
g3716
sg68
F1.0116318310347692
sbsI13
g3755
ssg140
I4
sg141
I10
sg142
I50
sg143
F-734.0
sg144
I12
sg145
(lp3844
g3709
ag3724
ag3732
ag3740
ag3770
ag3758
ag3778
ag3786
ag3794
ag3802
asg147
(lp3845
g3747
asbsI49
g0
(g24
g2
Ntp3846
Rp3847
(dp3848
g28
I1
sg29
I1
sg30
(dp3849
I0
g0
(g32
g2
Ntp3850
Rp3851
(dp3852
g36
(dp3853
I1
g0
(g38
g2
Ntp3854
Rp3855
(dp3856
g42
g3851
sg68
F0.13412296544333735
sg44
I01
sg45
g0
(g32
g2
Ntp3857
Rp3858
(dp3859
g36
(dp3860
sg50
I00
sg51
I11
sg52
g53
sg54
I0
sg55
F0.0
sg56
(dp3861
I1
g3855
sI2
g0
(g38
g2
Ntp3862
Rp3863
(dp3864
g42
g0
(g32
g2
Ntp3865
Rp3866
(dp3867
g36
(dp3868
I2
g3863
ssg50
I00
sg51
I0
sg52
g65
sg54
I0
sg55
F0.0
sg56
(dp3869
sg67
I1
sbsg43
I2
sg44
I01
sg45
g3858
sg68
F1.8276044601323225
sbsI3
g0
(g38
g2
Ntp3870
Rp3871
(dp3872
g42
g0
(g32
g2
Ntp3873
Rp3874
(dp3875
g36
(dp3876
I3
g3871
ssg50
I00
sg51
I0
sg52
g65
sg54
I0
sg55
F0.0
sg56
(dp3877
sg67
I2
sbsg68
F2.0116809674895326
sg44
I01
sg45
g3858
sg43
I3
sbsI4
g0
(g38
g2
Ntp3878
Rp3879
(dp3880
g42
g0
(g32
g2
Ntp3881
Rp3882
(dp3883
g36
(dp3884
I11
g0
(g38
g2
Ntp3885
Rp3886
(dp3887
g42
g3882
sg43
I11
sg44
I01
sg45
g0
(g32
g2
Ntp3888
Rp3889
(dp3890
g36
(dp3891
I12
g0
(g38
g2
Ntp3892
Rp3893
(dp3894
g42
g3889
sg43
I12
sg44
I01
sg45
g3858
sg68
F0.9279533555003948
sbssg50
I00
sg51
I2
sg52
g354
sg54
I0
sg55
F0.0
sg56
(dp3895
I11
g3886
sI13
g0
(g38
g2
Ntp3896
Rp3897
(dp3898
g42
g0
(g32
g2
Ntp3899
Rp3900
(dp3901
g36
(dp3902
I13
g3897
sI6
g0
(g38
g2
Ntp3903
Rp3904
(dp3905
g42
g3900
sg43
I6
sg44
I01
sg45
g3858
sg68
F-0.47785798253620015
sbssg50
I00
sg51
I0
sg52
g65
sg54
I0
sg55
F0.0
sg56
(dp3906
sg67
I5
sbsg43
I13
sg44
I01
sg45
g3889
sg68
F-0.46660283012160697
sbssg67
I11
sbsg68
F1.7730696767219707
sbsI4
g3879
ssg50
I00
sg51
I0
sg52
g65
sg54
I0
sg55
F0.0
sg56
(dp3907
sg67
I3
sbsg43
I4
sg44
I01
sg45
g3858
sg68
F0.33455310350830136
sbsI5
g0
(g38
g2
Ntp3908
Rp3909
(dp3910
g42
g0
(g32
g2
Ntp3911
Rp3912
(dp3913
g36
(dp3914
I5
g3909
ssg50
I00
sg51
I0
sg52
g65
sg54
I0
sg55
F0.0
sg56
(dp3915
sg67
I4
sbsg43
I5
sg44
I01
sg45
g3858
sg68
F-0.6180860643180761
sbsI6
g3904
sI7
g0
(g38
g2
Ntp3916
Rp3917
(dp3918
g42
g0
(g32
g2
Ntp3919
Rp3920
(dp3921
g36
(dp3922
I7
g3917
ssg50
I00
sg51
I0
sg52
g65
sg54
I0
sg55
F0.0
sg56
(dp3923
sg67
I6
sbsg43
I7
sg44
I01
sg45
g3858
sg68
F-1.396450124576905
sbsI8
g0
(g38
g2
Ntp3924
Rp3925
(dp3926
g42
g0
(g32
g2
Ntp3927
Rp3928
(dp3929
g36
(dp3930
I8
g3925
ssg50
I00
sg51
I0
sg52
g65
sg54
I0
sg55
F0.0
sg56
(dp3931
sg67
I7
sbsg43
I8
sg44
I01
sg45
g3858
sg68
F0.7244502244713007
sbsI9
g0
(g38
g2
Ntp3932
Rp3933
(dp3934
g42
g0
(g32
g2
Ntp3935
Rp3936
(dp3937
g36
(dp3938
I9
g3933
ssg50
I00
sg51
I0
sg52
g65
sg54
I0
sg55
F0.0
sg56
(dp3939
sg67
I8
sbsg43
I9
sg44
I01
sg45
g3858
sg68
F2.2786831179282037
sbsI10
g0
(g38
g2
Ntp3940
Rp3941
(dp3942
g42
g0
(g32
g2
Ntp3943
Rp3944
(dp3945
g36
(dp3946
I10
g3941
ssg50
I00
sg51
I0
sg52
g65
sg54
I0
sg55
F0.0
sg56
(dp3947
sg67
I9
sbsg43
I10
sg44
I01
sg45
g3858
sg68
F0.08886455842307601
sbsI12
g3893
ssg67
I10
sbsg43
I1
sbssg50
I00
sg51
I0
sg52
g65
sg54
I0
sg55
F0.0
sg56
(dp3948
sg67
I0
sbsI1
g3866
sI2
g3874
sI3
g3882
sI4
g3912
sI5
g3900
sI6
g3920
sI7
g3928
sI8
g3936
sI9
g3944
sI10
g3858
sI11
g3889
ssg134
(lp3949
g3858
asg9
(iinnovation
Innovation
p3950
(dp3951
g12
I14
sbsg138
(dp3952
I1
g0
(g38
g2
Ntp3953
Rp3954
(dp3955
g42
g3851
sg43
I1
sg44
I01
sg45
g3858
sg68
F0.01904873887353775
sbsI2
g3863
sI3
g0
(g38
g2
Ntp3956
Rp3957
(dp3958
g42
g3874
sg43
I3
sg44
I01
sg45
g3858
sg68
F-1.632527109316004
sbsI4
g0
(g38
g2
Ntp3959
Rp3960
(dp3961
g42
g3882
sg43
I4
sg44
I00
sg45
g3858
sg68
F0.0765557601294993
sbsI5
g0
(g38
g2
Ntp3962
Rp3963
(dp3964
g42
g3912
sg43
I5
sg44
I01
sg45
g3858
sg68
F-0.4460343818773243
sbsI6
g0
(g38
g2
Ntp3965
Rp3966
(dp3967
g42
g3900
sg43
I6
sg44
I01
sg45
g3858
sg68
F-0.2756504235753311
sbsI7
g0
(g38
g2
Ntp3968
Rp3969
(dp3970
g42
g3920
sg43
I7
sg44
I01
sg45
g3858
sg68
F-1.5652842883887346
sbsI8
g0
(g38
g2
Ntp3971
Rp3972
(dp3973
g42
g3928
sg43
I8
sg44
I01
sg45
g3858
sg68
F0.8268531149406119
sbsI9
g0
(g38
g2
Ntp3974
Rp3975
(dp3976
g42
g3936
sg43
I9
sg44
I01
sg45
g3858
sg68
F1.7801157755382677
sbsI10
g0
(g38
g2
Ntp3977
Rp3978
(dp3979
g42
g3944
sg43
I10
sg44
I01
sg45
g3858
sg68
F0.08042644924812642
sbsI11
g0
(g38
g2
Ntp3980
Rp3981
(dp3982
g42
g3882
sg43
I11
sg44
I01
sg45
g3889
sg68
F1.768872407042452
sbsI12
g0
(g38
g2
Ntp3983
Rp3984
(dp3985
g42
g3889
sg43
I12
sg44
I01
sg45
g3858
sg68
F1.0116318310347692
sbsI13
g3897
ssg140
I4
sg141
I10
sg142
I50
sg143
F-734.0
sg144
I12
sg145
(lp3986
g3851
ag3866
ag3874
ag3882
ag3912
ag3900
ag3920
ag3928
ag3936
ag3944
asg147
(lp3987
g3889
asbsI50
g0
(g24
g2
Ntp3988
Rp3989
(dp3990
g28
I1
sg29
I1
sg30
(dp3991
I0
g0
(g32
g2
Ntp3992
Rp3993
(dp3994
g36
(dp3995
I1
g0
(g38
g2
Ntp3996
Rp3997
(dp3998
g42
g3993
sg68
F0.13412296544333735
sg44
I01
sg45
g0
(g32
g2
Ntp3999
Rp4000
(dp4001
g36
(dp4002
sg50
I00
sg51
I11
sg52
g53
sg54
I0
sg55
F0.0
sg56
(dp4003
I1
g3997
sI2
g0
(g38
g2
Ntp4004
Rp4005
(dp4006
g42
g0
(g32
g2
Ntp4007
Rp4008
(dp4009
g36
(dp4010
I2
g4005
ssg50
I00
sg51
I0
sg52
g65
sg54
I0
sg55
F0.0
sg56
(dp4011
sg67
I1
sbsg43
I2
sg44
I01
sg45
g4000
sg68
F1.8276044601323225
sbsI3
g0
(g38
g2
Ntp4012
Rp4013
(dp4014
g42
g0
(g32
g2
Ntp4015
Rp4016
(dp4017
g36
(dp4018
I3
g4013
ssg50
I00
sg51
I0
sg52
g65
sg54
I0
sg55
F0.0
sg56
(dp4019
sg67
I2
sbsg68
F2.0116809674895326
sg44
I01
sg45
g4000
sg43
I3
sbsI4
g0
(g38
g2
Ntp4020
Rp4021
(dp4022
g42
g0
(g32
g2
Ntp4023
Rp4024
(dp4025
g36
(dp4026
I11
g0
(g38
g2
Ntp4027
Rp4028
(dp4029
g42
g4024
sg43
I11
sg44
I01
sg45
g0
(g32
g2
Ntp4030
Rp4031
(dp4032
g36
(dp4033
I12
g0
(g38
g2
Ntp4034
Rp4035
(dp4036
g42
g4031
sg43
I12
sg44
I01
sg45
g4000
sg68
F0.9279533555003948
sbssg50
I00
sg51
I2
sg52
g354
sg54
I0
sg55
F0.0
sg56
(dp4037
I11
g4028
sI13
g0
(g38
g2
Ntp4038
Rp4039
(dp4040
g42
g0
(g32
g2
Ntp4041
Rp4042
(dp4043
g36
(dp4044
I13
g4039
sI6
g0
(g38
g2
Ntp4045
Rp4046
(dp4047
g42
g4042
sg43
I6
sg44
I01
sg45
g4000
sg68
F-0.47785798253620015
sbssg50
I00
sg51
I0
sg52
g65
sg54
I0
sg55
F0.0
sg56
(dp4048
sg67
I5
sbsg43
I13
sg44
I01
sg45
g4031
sg68
F-0.46660283012160697
sbssg67
I11
sbsg68
F1.7730696767219707
sbsI4
g4021
ssg50
I00
sg51
I0
sg52
g65
sg54
I0
sg55
F0.0
sg56
(dp4049
sg67
I3
sbsg43
I4
sg44
I01
sg45
g4000
sg68
F0.33455310350830136
sbsI5
g0
(g38
g2
Ntp4050
Rp4051
(dp4052
g42
g0
(g32
g2
Ntp4053
Rp4054
(dp4055
g36
(dp4056
I5
g4051
ssg50
I00
sg51
I0
sg52
g65
sg54
I0
sg55
F0.0
sg56
(dp4057
sg67
I4
sbsg43
I5
sg44
I01
sg45
g4000
sg68
F-0.6180860643180761
sbsI6
g4046
sI7
g0
(g38
g2
Ntp4058
Rp4059
(dp4060
g42
g0
(g32
g2
Ntp4061
Rp4062
(dp4063
g36
(dp4064
I7
g4059
ssg50
I00
sg51
I0
sg52
g65
sg54
I0
sg55
F0.0
sg56
(dp4065
sg67
I6
sbsg43
I7
sg44
I01
sg45
g4000
sg68
F-1.396450124576905
sbsI8
g0
(g38
g2
Ntp4066
Rp4067
(dp4068
g42
g0
(g32
g2
Ntp4069
Rp4070
(dp4071
g36
(dp4072
I8
g4067
ssg50
I00
sg51
I0
sg52
g65
sg54
I0
sg55
F0.0
sg56
(dp4073
sg67
I7
sbsg43
I8
sg44
I01
sg45
g4000
sg68
F0.7244502244713007
sbsI9
g0
(g38
g2
Ntp4074
Rp4075
(dp4076
g42
g0
(g32
g2
Ntp4077
Rp4078
(dp4079
g36
(dp4080
I9
g4075
ssg50
I00
sg51
I0
sg52
g65
sg54
I0
sg55
F0.0
sg56
(dp4081
sg67
I8
sbsg43
I9
sg44
I01
sg45
g4000
sg68
F2.2786831179282037
sbsI10
g0
(g38
g2
Ntp4082
Rp4083
(dp4084
g42
g0
(g32
g2
Ntp4085
Rp4086
(dp4087
g36
(dp4088
I10
g4083
ssg50
I00
sg51
I0
sg52
g65
sg54
I0
sg55
F0.0
sg56
(dp4089
sg67
I9
sbsg43
I10
sg44
I01
sg45
g4000
sg68
F0.08886455842307601
sbsI12
g4035
ssg67
I10
sbsg43
I1
sbssg50
I00
sg51
I0
sg52
g65
sg54
I0
sg55
F0.0
sg56
(dp4090
sg67
I0
sbsI1
g4008
sI2
g4016
sI3
g4024
sI4
g4054
sI5
g4042
sI6
g4062
sI7
g4070
sI8
g4078
sI9
g4086
sI10
g4000
sI11
g4031
ssg134
(lp4091
g4000
asg9
(iinnovation
Innovation
p4092
(dp4093
g12
I14
sbsg138
(dp4094
I1
g0
(g38
g2
Ntp4095
Rp4096
(dp4097
g42
g3993
sg43
I1
sg44
I01
sg45
g4000
sg68
F0.01904873887353775
sbsI2
g4005
sI3
g0
(g38
g2
Ntp4098
Rp4099
(dp4100
g42
g4016
sg43
I3
sg44
I01
sg45
g4000
sg68
F-1.632527109316004
sbsI4
g0
(g38
g2
Ntp4101
Rp4102
(dp4103
g42
g4024
sg43
I4
sg44
I00
sg45
g4000
sg68
F0.0765557601294993
sbsI5
g0
(g38
g2
Ntp4104
Rp4105
(dp4106
g42
g4054
sg43
I5
sg44
I01
sg45
g4000
sg68
F-0.4460343818773243
sbsI6
g0
(g38
g2
Ntp4107
Rp4108
(dp4109
g42
g4042
sg43
I6
sg44
I01
sg45
g4000
sg68
F-0.2756504235753311
sbsI7
g0
(g38
g2
Ntp4110
Rp4111
(dp4112
g42
g4062
sg43
I7
sg44
I01
sg45
g4000
sg68
F-1.5652842883887346
sbsI8
g0
(g38
g2
Ntp4113
Rp4114
(dp4115
g42
g4070
sg43
I8
sg44
I01
sg45
g4000
sg68
F0.8268531149406119
sbsI9
g0
(g38
g2
Ntp4116
Rp4117
(dp4118
g42
g4078
sg43
I9
sg44
I01
sg45
g4000
sg68
F1.7801157755382677
sbsI10
g0
(g38
g2
Ntp4119
Rp4120
(dp4121
g42
g4086
sg43
I10
sg44
I01
sg45
g4000
sg68
F0.08042644924812642
sbsI11
g0
(g38
g2
Ntp4122
Rp4123
(dp4124
g42
g4024
sg43
I11
sg44
I01
sg45
g4031
sg68
F1.768872407042452
sbsI12
g0
(g38
g2
Ntp4125
Rp4126
(dp4127
g42
g4031
sg43
I12
sg44
I01
sg45
g4000
sg68
F1.0116318310347692
sbsI13
g4039
ssg140
I4
sg141
I10
sg142
I50
sg143
F-734.0
sg144
I12
sg145
(lp4128
g3993
ag4008
ag4016
ag4024
ag4054
ag4042
ag4062
ag4070
ag4078
ag4086
asg147
(lp4129
g4031
asbssg1536
I4
sg1537
I51
sg1538
g0
(g24
g2
Ntp4130
Rp4131
(dp4132
g28
I1
sg29
I1
sg30
(dp4133
I0
g0
(g32
g2
Ntp4134
Rp4135
(dp4136
g36
(dp4137
I1
g0
(g38
g2
Ntp4138
Rp4139
(dp4140
g42
g4135
sg68
F0.06573864334162328
sg44
I00
sg45
g0
(g32
g2
Ntp4141
Rp4142
(dp4143
g36
(dp4144
sg50
I00
sg51
I11
sg52
g53
sg54
I0
sg55
F0.0
sg56
(dp4145
I1
g4139
sI2
g0
(g38
g2
Ntp4146
Rp4147
(dp4148
g42
g0
(g32
g2
Ntp4149
Rp4150
(dp4151
g36
(dp4152
I2
g4147
ssg50
I00
sg51
I0
sg52
g65
sg54
I0
sg55
F0.0
sg56
(dp4153
sg67
I1
sbsg43
I2
sg44
I01
sg45
g4142
sg68
F-0.36071458483292873
sbsI3
g0
(g38
g2
Ntp4154
Rp4155
(dp4156
g42
g0
(g32
g2
Ntp4157
Rp4158
(dp4159
g36
(dp4160
I3
g4155
ssg50
I00
sg51
I0
sg52
g65
sg54
I0
sg55
F0.0
sg56
(dp4161
sg67
I2
sbsg43
I3
sg44
I01
sg45
g4142
sg68
F-2.0387153799258213
sbsI4
g0
(g38
g2
Ntp4162
Rp4163
(dp4164
g42
g0
(g32
g2
Ntp4165
Rp4166
(dp4167
g36
(dp4168
I4
g4163
ssg50
I00
sg51
I0
sg52
g65
sg54
I0
sg55
F0.0
sg56
(dp4169
sg67
I3
sbsg43
I4
sg44
I01
sg45
g4142
sg68
F-1.0808287340327456
sbsI5
g0
(g38
g2
Ntp4170
Rp4171
(dp4172
g42
g0
(g32
g2
Ntp4173
Rp4174
(dp4175
g36
(dp4176
I5
g4171
sI13
g0
(g38
g2
Ntp4177
Rp4178
(dp4179
g42
g4174
sg43
I13
sg44
I01
sg45
g0
(g32
g2
Ntp4180
Rp4181
(dp4182
g36
(dp4183
I12
g0
(g38
g2
Ntp4184
Rp4185
(dp4186
g42
g4181
sg43
I12
sg44
I01
sg45
g4142
sg68
F-0.787897396458472
sbssg50
I00
sg51
I2
sg52
g1695
sg54
I0
sg55
F0.0
sg56
(dp4187
I11
g0
(g38
g2
Ntp4188
Rp4189
(dp4190
g42
g4135
sg43
I11
sg44
I01
sg45
g4181
sg68
F-1.3428650913819327
sbsI13
g4178
ssg67
I11
sbsg68
F-0.853117878732587
sbssg50
I00
sg51
I0
sg52
g65
sg54
I0
sg55
F0.0
sg56
(dp4191
sg67
I4
sbsg68
F2.0537843334542445
sg44
I01
sg45
g4142
sg43
I5
sbsI6
g0
(g38
g2
Ntp4192
Rp4193
(dp4194
g42
g0
(g32
g2
Ntp4195
Rp4196
(dp4197
g36
(dp4198
I6
g4193
ssg50
I00
sg51
I0
sg52
g65
sg54
I0
sg55
F0.0
sg56
(dp4199
sg67
I5
sbsg43
I6
sg44
I01
sg45
g4142
sg68
F-1.16469506350368
sbsI7
g0
(g38
g2
Ntp4200
Rp4201
(dp4202
g42
g0
(g32
g2
Ntp4203
Rp4204
(dp4205
g36
(dp4206
I7
g4201
ssg50
I00
sg51
I0
sg52
g65
sg54
I0
sg55
F0.0
sg56
(dp4207
sg67
I6
sbsg43
I7
sg44
I01
sg45
g4142
sg68
F-1.4778840791167749
sbsI8
g0
(g38
g2
Ntp4208
Rp4209
(dp4210
g42
g0
(g32
g2
Ntp4211
Rp4212
(dp4213
g36
(dp4214
I8
g4209
ssg50
I00
sg51
I0
sg52
g65
sg54
I0
sg55
F0.0
sg56
(dp4215
sg67
I7
sbsg43
I8
sg44
I01
sg45
g4142
sg68
F-1.2227297387599099
sbsI9
g0
(g38
g2
Ntp4216
Rp4217
(dp4218
g42
g0
(g32
g2
Ntp4219
Rp4220
(dp4221
g36
(dp4222
I9
g4217
ssg50
I00
sg51
I0
sg52
g65
sg54
I0
sg55
F0.0
sg56
(dp4223
sg67
I8
sbsg43
I9
sg44
I01
sg45
g4142
sg68
F1.5167796898352777
sbsI10
g0
(g38
g2
Ntp4224
Rp4225
(dp4226
g42
g0
(g32
g2
Ntp4227
Rp4228
(dp4229
g36
(dp4230
I10
g4225
ssg50
I00
sg51
I0
sg52
g65
sg54
I0
sg55
F0.0
sg56
(dp4231
sg67
I9
sbsg43
I10
sg44
I01
sg45
g4142
sg68
F1.261686373561013
sbsI12
g4185
ssg67
I10
sbsg43
I1
sbsI11
g4189
ssg50
I00
sg51
I0
sg52
g65
sg54
I0
sg55
F0.0
sg56
(dp4232
sg67
I0
sbsI1
g4150
sI2
g4158
sI3
g4166
sI4
g4174
sI5
g4196
sI6
g4204
sI7
g4212
sI8
g4220
sI9
g4228
sI10
g4142
sI11
g4181
ssg134
(lp4233
g4142
asg9
(iinnovation
Innovation
p4234
(dp4235
g12
I14
sbsg138
(dp4236
I1
g0
(g38
g2
Ntp4237
Rp4238
(dp4239
g43
I1
sg45
g4142
sg44
I00
sg42
g4135
sg68
F-1.9804499936761442
sbsI2
g0
(g38
g2
Ntp4240
Rp4241
(dp4242
g43
I2
sg45
g4142
sg44
I01
sg42
g4150
sg68
F-0.4200777291144155
sbsI3
g0
(g38
g2
Ntp4243
Rp4244
(dp4245
g43
I3
sg45
g4142
sg44
I01
sg42
g4158
sg68
F-2.0349772331238896
sbsI4
g0
(g38
g2
Ntp4246
Rp4247
(dp4248
g43
I4
sg45
g4142
sg44
I01
sg42
g4166
sg68
F-0.13787420449113297
sbsI5
g0
(g38
g2
Ntp4249
Rp4250
(dp4251
g43
I5
sg45
g4142
sg44
I01
sg42
g4174
sg68
F1.6350030486853764
sbsI6
g0
(g38
g2
Ntp4252
Rp4253
(dp4254
g43
I6
sg45
g4142
sg44
I01
sg42
g4196
sg68
F1.4361375531571223
sbsI7
g0
(g38
g2
Ntp4255
Rp4256
(dp4257
g43
I7
sg45
g4142
sg44
I01
sg42
g4204
sg68
F0.14145646750483876
sbsI8
g0
(g38
g2
Ntp4258
Rp4259
(dp4260
g43
I8
sg45
g4142
sg44
I01
sg42
g4212
sg68
F-1.1242173942101021
sbsI9
g0
(g38
g2
Ntp4261
Rp4262
(dp4263
g43
I9
sg45
g4142
sg44
I01
sg42
g4220
sg68
F1.5811067057073034
sbsI10
g0
(g38
g2
Ntp4264
Rp4265
(dp4266
g43
I10
sg45
g4142
sg44
I01
sg42
g4228
sg68
F1.3054635872132079
sbsI11
g4189
sI12
g4185
sI13
g4178
ssg140
I0
sg141
I10
sg142
I50
sg143
F-757.0
sg144
I12
sg145
(lp4267
g4135
ag4150
ag4158
ag4166
ag4174
ag4196
ag4204
ag4212
ag4220
ag4228
asg147
(lp4268
g4181
asbsg1632
I01
sg1633
I0
sg67
I1
sbssS'population'
p4269
I40
sb.